	.section .mdebug.abi32
	.previous
	.nan	legacy
	.module	fp=xx
	.module	nooddspreg
	.text
$Ltext0:
	.section	.text._ZN9RipPacketC2Ev,"axG",@progbits,_ZN9RipPacketC5Ev,comdat
	.align	2
	.weak	_ZN9RipPacketC2Ev
$LFB1 = .
	.file 1 "rip.h"
	.loc 1 20 0
	.cfi_startproc
	.set	nomips16
	.set	nomicromips
	.ent	_ZN9RipPacketC2Ev
	.type	_ZN9RipPacketC2Ev, @function
_ZN9RipPacketC2Ev:
	.frame	$fp,16,$31		# vars= 8, regs= 1/0, args= 0, gp= 0
	.mask	0x40000000,-4
	.fmask	0x00000000,0
	.set	noreorder
	.set	nomacro
	addiu	$sp,$sp,-16
	.cfi_def_cfa_offset 16
	sw	$fp,12($sp)
	.cfi_offset 30, -4
	move	$fp,$sp
	.cfi_def_cfa_register 30
	sw	$4,16($fp)
$LBB2 = .
$LBB3 = .
	.loc 1 21 0
	lw	$2,16($fp)
	sw	$0,0($2)
	.loc 1 22 0
	lw	$2,16($fp)
	sb	$0,4($2)
$LBB4 = .
	.loc 1 23 0
	sw	$0,0($fp)
$L3:
	.loc 1 23 0 is_stmt 0 discriminator 3
	lw	$2,0($fp)
	slt	$2,$2,25
	beq	$2,$0,$L4
	nop

	.loc 1 24 0 is_stmt 1 discriminator 2
	lw	$3,16($fp)
	lw	$2,0($fp)
	sll	$2,$2,4
	addu	$2,$3,$2
	sw	$0,8($2)
	.loc 1 25 0 discriminator 2
	lw	$3,16($fp)
	lw	$2,0($fp)
	sll	$2,$2,4
	addu	$2,$3,$2
	sw	$0,12($2)
	.loc 1 26 0 discriminator 2
	lw	$3,16($fp)
	lw	$2,0($fp)
	addiu	$2,$2,1
	sll	$2,$2,4
	addu	$2,$3,$2
	sw	$0,0($2)
	.loc 1 27 0 discriminator 2
	lw	$3,16($fp)
	lw	$2,0($fp)
	addiu	$2,$2,1
	sll	$2,$2,4
	addu	$2,$3,$2
	sw	$0,4($2)
	.loc 1 23 0 discriminator 2
	lw	$2,0($fp)
	addiu	$2,$2,1
	sw	$2,0($fp)
	b	$L3
	nop

$L4:
$LBE4 = .
$LBE3 = .
$LBE2 = .
	.loc 1 29 0
	nop
	move	$sp,$fp
	.cfi_def_cfa_register 29
	lw	$fp,12($sp)
	addiu	$sp,$sp,16
	.cfi_restore 30
	.cfi_def_cfa_offset 0
	jr	$31
	nop

	.set	macro
	.set	reorder
	.end	_ZN9RipPacketC2Ev
	.cfi_endproc
$LFE1:
	.size	_ZN9RipPacketC2Ev, .-_ZN9RipPacketC2Ev
	.weak	_ZN9RipPacketC1Ev
	_ZN9RipPacketC1Ev = _ZN9RipPacketC2Ev
	.globl	packet
	.section	.bss,"aw",@nobits
	.align	2
	.type	packet, @object
	.size	packet, 2048
packet:
	.space	2048
	.globl	output
	.align	2
	.type	output, @object
	.size	output, 2048
output:
	.space	2048
	.globl	out_len
	.align	2
	.type	out_len, @object
	.size	out_len, 4
out_len:
	.space	4
	.globl	addrs
	.data
	.align	2
	.type	addrs, @object
	.size	addrs, 16
addrs:
	.word	16777280
	.word	16777344
	.word	16777360
	.word	16777376
	.rdata
	.align	2
	.type	_ZL11mask_length, @object
	.size	_ZL11mask_length, 4
_ZL11mask_length:
	.word	8
	.text
	.align	2
	.globl	_Z3ERRPKcz
$LFB15 = .
	.file 2 "main.cpp"
	.loc 2 57 0
	.cfi_startproc
	.set	nomips16
	.set	nomicromips
	.ent	_Z3ERRPKcz
	.type	_Z3ERRPKcz, @function
_Z3ERRPKcz:
	.frame	$fp,8,$31		# vars= 0, regs= 1/0, args= 0, gp= 0
	.mask	0x40000000,-4
	.fmask	0x00000000,0
	.set	noreorder
	.set	nomacro
	addiu	$sp,$sp,-8
	.cfi_def_cfa_offset 8
	sw	$fp,4($sp)
	.cfi_offset 30, -4
	move	$fp,$sp
	.cfi_def_cfa_register 30
	sw	$4,8($fp)
	sw	$5,12($fp)
	sw	$6,16($fp)
	sw	$7,20($fp)
	.loc 2 57 0
	nop
	move	$sp,$fp
	.cfi_def_cfa_register 29
	lw	$fp,4($sp)
	addiu	$sp,$sp,8
	.cfi_restore 30
	.cfi_def_cfa_offset 0
	jr	$31
	nop

	.set	macro
	.set	reorder
	.end	_Z3ERRPKcz
	.cfi_endproc
$LFE15:
	.size	_Z3ERRPKcz, .-_Z3ERRPKcz
	.align	2
	.globl	_Z12write_serialh
$LFB16 = .
	.loc 2 59 0
	.cfi_startproc
	.set	nomips16
	.set	nomicromips
	.ent	_Z12write_serialh
	.type	_Z12write_serialh, @function
_Z12write_serialh:
	.frame	$fp,24,$31		# vars= 0, regs= 2/0, args= 16, gp= 0
	.mask	0xc0000000,-4
	.fmask	0x00000000,0
	.set	noreorder
	.set	nomacro
	addiu	$sp,$sp,-24
	.cfi_def_cfa_offset 24
	sw	$31,20($sp)
	sw	$fp,16($sp)
	.cfi_offset 31, -4
	.cfi_offset 30, -8
	move	$fp,$sp
	.cfi_def_cfa_register 30
	move	$2,$4
	sb	$2,24($fp)
	.loc 2 60 0
	lbu	$2,24($fp)
	move	$4,$2
	jal	WRITESERIAL
	nop

	.loc 2 66 0
	nop
	move	$sp,$fp
	.cfi_def_cfa_register 29
	lw	$31,20($sp)
	lw	$fp,16($sp)
	addiu	$sp,$sp,24
	.cfi_restore 30
	.cfi_restore 31
	.cfi_def_cfa_offset 0
	jr	$31
	nop

	.set	macro
	.set	reorder
	.end	_Z12write_serialh
	.cfi_endproc
$LFE16:
	.size	_Z12write_serialh, .-_Z12write_serialh
	.align	2
	.globl	_Z22print_string_to_serialPKc
$LFB17 = .
	.loc 2 67 0
	.cfi_startproc
	.set	nomips16
	.set	nomicromips
	.ent	_Z22print_string_to_serialPKc
	.type	_Z22print_string_to_serialPKc, @function
_Z22print_string_to_serialPKc:
	.frame	$fp,32,$31		# vars= 8, regs= 2/0, args= 16, gp= 0
	.mask	0xc0000000,-4
	.fmask	0x00000000,0
	.set	noreorder
	.set	nomacro
	addiu	$sp,$sp,-32
	.cfi_def_cfa_offset 32
	sw	$31,28($sp)
	sw	$fp,24($sp)
	.cfi_offset 31, -4
	.cfi_offset 30, -8
	move	$fp,$sp
	.cfi_def_cfa_register 30
	sw	$4,32($fp)
$LBB5 = .
	.loc 2 68 0
	sw	$0,16($fp)
$L9:
	.loc 2 68 0 is_stmt 0 discriminator 3
	lw	$2,16($fp)
	lw	$3,32($fp)
	addu	$2,$3,$2
	lb	$2,0($2)
	beq	$2,$0,$L10
	nop

	.loc 2 69 0 is_stmt 1 discriminator 2
	lw	$2,16($fp)
	lw	$3,32($fp)
	addu	$2,$3,$2
	lb	$2,0($2)
	andi	$2,$2,0x00ff
	move	$4,$2
	jal	_Z12write_serialh
	nop

	.loc 2 68 0 discriminator 2
	lw	$2,16($fp)
	addiu	$2,$2,1
	sw	$2,16($fp)
	b	$L9
	nop

$L10:
$LBE5 = .
	.loc 2 71 0
	nop
	move	$sp,$fp
	.cfi_def_cfa_register 29
	lw	$31,28($sp)
	lw	$fp,24($sp)
	addiu	$sp,$sp,32
	.cfi_restore 30
	.cfi_restore 31
	.cfi_def_cfa_offset 0
	jr	$31
	nop

	.set	macro
	.set	reorder
	.end	_Z22print_string_to_serialPKc
	.cfi_endproc
$LFE17:
	.size	_Z22print_string_to_serialPKc, .-_Z22print_string_to_serialPKc
	.align	2
	.globl	_Z22print_uint32_to_serialj
$LFB18 = .
	.loc 2 72 0
	.cfi_startproc
	.set	nomips16
	.set	nomicromips
	.ent	_Z22print_uint32_to_serialj
	.type	_Z22print_uint32_to_serialj, @function
_Z22print_uint32_to_serialj:
	.frame	$fp,24,$31		# vars= 0, regs= 2/0, args= 16, gp= 0
	.mask	0xc0000000,-4
	.fmask	0x00000000,0
	.set	noreorder
	.set	nomacro
	addiu	$sp,$sp,-24
	.cfi_def_cfa_offset 24
	sw	$31,20($sp)
	sw	$fp,16($sp)
	.cfi_offset 31, -4
	.cfi_offset 30, -8
	move	$fp,$sp
	.cfi_def_cfa_register 30
	sw	$4,24($fp)
	.loc 2 73 0
	lw	$2,24($fp)
	andi	$2,$2,0x00ff
	move	$4,$2
	jal	_Z12write_serialh
	nop

	.loc 2 74 0
	lw	$2,24($fp)
	srl	$2,$2,8
	andi	$2,$2,0x00ff
	move	$4,$2
	jal	_Z12write_serialh
	nop

	.loc 2 75 0
	lw	$2,24($fp)
	srl	$2,$2,16
	andi	$2,$2,0x00ff
	move	$4,$2
	jal	_Z12write_serialh
	nop

	.loc 2 76 0
	lw	$2,24($fp)
	srl	$2,$2,24
	andi	$2,$2,0x00ff
	move	$4,$2
	jal	_Z12write_serialh
	nop

	.loc 2 77 0
	li	$4,44			# 0x2c
	jal	_Z12write_serialh
	nop

	.loc 2 78 0
	nop
	move	$sp,$fp
	.cfi_def_cfa_register 29
	lw	$31,20($sp)
	lw	$fp,16($sp)
	addiu	$sp,$sp,24
	.cfi_restore 30
	.cfi_restore 31
	.cfi_def_cfa_offset 0
	jr	$31
	nop

	.set	macro
	.set	reorder
	.end	_Z22print_uint32_to_serialj
	.cfi_endproc
$LFE18:
	.size	_Z22print_uint32_to_serialj, .-_Z22print_uint32_to_serialj
	.align	2
	.globl	_Z22print_signal_to_serialh
$LFB19 = .
	.loc 2 79 0
	.cfi_startproc
	.set	nomips16
	.set	nomicromips
	.ent	_Z22print_signal_to_serialh
	.type	_Z22print_signal_to_serialh, @function
_Z22print_signal_to_serialh:
	.frame	$fp,24,$31		# vars= 0, regs= 2/0, args= 16, gp= 0
	.mask	0xc0000000,-4
	.fmask	0x00000000,0
	.set	noreorder
	.set	nomacro
	addiu	$sp,$sp,-24
	.cfi_def_cfa_offset 24
	sw	$31,20($sp)
	sw	$fp,16($sp)
	.cfi_offset 31, -4
	.cfi_offset 30, -8
	move	$fp,$sp
	.cfi_def_cfa_register 30
	move	$2,$4
	sb	$2,24($fp)
	.loc 2 80 0
	lbu	$2,24($fp)
	move	$4,$2
	jal	_Z12write_serialh
	nop

	.loc 2 81 0
	lbu	$2,24($fp)
	move	$4,$2
	jal	_Z12write_serialh
	nop

	.loc 2 82 0
	lbu	$2,24($fp)
	move	$4,$2
	jal	_Z12write_serialh
	nop

	.loc 2 83 0
	nop
	move	$sp,$fp
	.cfi_def_cfa_register 29
	lw	$31,20($sp)
	lw	$fp,16($sp)
	addiu	$sp,$sp,24
	.cfi_restore 30
	.cfi_restore 31
	.cfi_def_cfa_offset 0
	jr	$31
	nop

	.set	macro
	.set	reorder
	.end	_Z22print_signal_to_serialh
	.cfi_endproc
$LFE19:
	.size	_Z22print_signal_to_serialh, .-_Z22print_signal_to_serialh
	.align	2
	.globl	_Z14HeaderChecksumPti
$LFB20 = .
	.loc 2 88 0
	.cfi_startproc
	.set	nomips16
	.set	nomicromips
	.ent	_Z14HeaderChecksumPti
	.type	_Z14HeaderChecksumPti, @function
_Z14HeaderChecksumPti:
	.frame	$fp,16,$31		# vars= 8, regs= 1/0, args= 0, gp= 0
	.mask	0x40000000,-4
	.fmask	0x00000000,0
	.set	noreorder
	.set	nomacro
	addiu	$sp,$sp,-16
	.cfi_def_cfa_offset 16
	sw	$fp,12($sp)
	.cfi_offset 30, -4
	move	$fp,$sp
	.cfi_def_cfa_register 30
	sw	$4,16($fp)
	sw	$5,20($fp)
	.loc 2 89 0
	sw	$0,0($fp)
$LBB6 = .
	.loc 2 90 0
	sw	$0,4($fp)
$L15:
	.loc 2 90 0 is_stmt 0 discriminator 3
	lw	$3,4($fp)
	lw	$2,20($fp)
	slt	$2,$3,$2
	beq	$2,$0,$L14
	nop

	.loc 2 91 0 is_stmt 1 discriminator 2
	lw	$2,4($fp)
	sll	$2,$2,1
	lw	$3,16($fp)
	addu	$2,$3,$2
	lhu	$2,0($2)
	move	$3,$2
	lw	$2,0($fp)
	addu	$2,$2,$3
	sw	$2,0($fp)
	.loc 2 90 0 discriminator 2
	lw	$2,4($fp)
	addiu	$2,$2,1
	sw	$2,4($fp)
	b	$L15
	nop

$L14:
$LBE6 = .
	.loc 2 92 0
	lw	$3,0($fp)
	li	$2,65536			# 0x10000
	sltu	$2,$3,$2
	bne	$2,$0,$L16
	nop

	.loc 2 93 0
	lw	$2,0($fp)
	andi	$3,$2,0xffff
	lw	$2,0($fp)
	srl	$2,$2,16
	addu	$2,$3,$2
	sw	$2,0($fp)
	.loc 2 92 0
	b	$L14
	nop

$L16:
	.loc 2 94 0
	lw	$2,0($fp)
	andi	$2,$2,0xffff
	nor	$2,$0,$2
	andi	$2,$2,0xffff
	.loc 2 95 0
	move	$sp,$fp
	.cfi_def_cfa_register 29
	lw	$fp,12($sp)
	addiu	$sp,$sp,16
	.cfi_restore 30
	.cfi_def_cfa_offset 0
	jr	$31
	nop

	.set	macro
	.set	reorder
	.end	_Z14HeaderChecksumPti
	.cfi_endproc
$LFE20:
	.size	_Z14HeaderChecksumPti, .-_Z14HeaderChecksumPti
	.align	2
	.globl	_Z16change_endian_16t
$LFB21 = .
	.loc 2 97 0
	.cfi_startproc
	.set	nomips16
	.set	nomicromips
	.ent	_Z16change_endian_16t
	.type	_Z16change_endian_16t, @function
_Z16change_endian_16t:
	.frame	$fp,8,$31		# vars= 0, regs= 1/0, args= 0, gp= 0
	.mask	0x40000000,-4
	.fmask	0x00000000,0
	.set	noreorder
	.set	nomacro
	addiu	$sp,$sp,-8
	.cfi_def_cfa_offset 8
	sw	$fp,4($sp)
	.cfi_offset 30, -4
	move	$fp,$sp
	.cfi_def_cfa_register 30
	move	$2,$4
	sh	$2,8($fp)
	.loc 2 98 0
	lhu	$2,8($fp)
	srl	$2,$2,8
	andi	$3,$2,0xffff
	lhu	$2,8($fp)
	sll	$2,$2,8
	andi	$2,$2,0xffff
	addu	$2,$3,$2
	andi	$2,$2,0xffff
	.loc 2 99 0
	move	$sp,$fp
	.cfi_def_cfa_register 29
	lw	$fp,4($sp)
	addiu	$sp,$sp,8
	.cfi_restore 30
	.cfi_def_cfa_offset 0
	jr	$31
	nop

	.set	macro
	.set	reorder
	.end	_Z16change_endian_16t
	.cfi_endproc
$LFE21:
	.size	_Z16change_endian_16t, .-_Z16change_endian_16t
	.globl	identification
	.data
	.align	1
	.type	identification, @object
	.size	identification, 2
identification:
	.half	19584
	.text
	.align	2
	.globl	_Z16IPHeaderAssemblePhRjjj
$LFB22 = .
	.loc 2 103 0
	.cfi_startproc
	.set	nomips16
	.set	nomicromips
	.ent	_Z16IPHeaderAssemblePhRjjj
	.type	_Z16IPHeaderAssemblePhRjjj, @function
_Z16IPHeaderAssemblePhRjjj:
	.frame	$fp,32,$31		# vars= 0, regs= 3/0, args= 16, gp= 0
	.mask	0xc0010000,-4
	.fmask	0x00000000,0
	.set	noreorder
	.set	nomacro
	addiu	$sp,$sp,-32
	.cfi_def_cfa_offset 32
	sw	$31,28($sp)
	sw	$fp,24($sp)
	sw	$16,20($sp)
	.cfi_offset 31, -4
	.cfi_offset 30, -8
	.cfi_offset 16, -12
	move	$fp,$sp
	.cfi_def_cfa_register 30
	sw	$4,32($fp)
	sw	$5,36($fp)
	sw	$6,40($fp)
	sw	$7,44($fp)
	.loc 2 104 0
	lw	$2,32($fp)
	li	$3,69			# 0x45
	sb	$3,0($2)
	.loc 2 105 0
	lw	$2,32($fp)
	addiu	$2,$2,1
	li	$3,-64			# 0xffffffffffffffc0
	sb	$3,0($2)
	.loc 2 106 0
	lw	$2,36($fp)
	lw	$2,0($2)
	addiu	$3,$2,20
	lw	$2,36($fp)
	sw	$3,0($2)
	lw	$2,36($fp)
	lw	$2,0($2)
	andi	$3,$2,0xffff
	lw	$2,32($fp)
	addiu	$16,$2,2
	move	$4,$3
	jal	_Z16change_endian_16t
	nop

	sh	$2,0($16)
	.loc 2 107 0
	lw	$2,32($fp)
	addiu	$2,$2,4
	li	$3,26214			# 0x6666
	sh	$3,0($2)
	.loc 2 108 0
	lw	$2,36($fp)
	lw	$2,0($2)
	andi	$3,$2,0xffff
	lui	$2,%hi(identification)
	lhu	$2,%lo(identification)($2)
	addu	$2,$3,$2
	andi	$3,$2,0xffff
	lui	$2,%hi(identification)
	sh	$3,%lo(identification)($2)
	lw	$2,32($fp)
	addiu	$2,$2,4
	lui	$3,%hi(identification)
	lhu	$3,%lo(identification)($3)
	sh	$3,0($2)
	.loc 2 110 0
	lw	$2,32($fp)
	addiu	$2,$2,6
	sh	$0,0($2)
	.loc 2 111 0
	lw	$2,32($fp)
	addiu	$2,$2,8
	li	$3,1			# 0x1
	sb	$3,0($2)
	.loc 2 112 0
	lw	$2,32($fp)
	addiu	$2,$2,9
	li	$3,17			# 0x11
	sb	$3,0($2)
	.loc 2 113 0
	lw	$2,32($fp)
	addiu	$2,$2,10
	sh	$0,0($2)
	.loc 2 114 0
	lw	$2,32($fp)
	addiu	$2,$2,12
	lw	$3,40($fp)
	sw	$3,0($2)
	.loc 2 115 0
	lw	$2,32($fp)
	addiu	$2,$2,16
	lw	$3,44($fp)
	sw	$3,0($2)
	.loc 2 116 0
	lw	$2,32($fp)
	addiu	$16,$2,10
	li	$5,10			# 0xa
	lw	$4,32($fp)
	jal	_Z14HeaderChecksumPti
	nop

	sh	$2,0($16)
	.loc 2 117 0
	nop
	move	$sp,$fp
	.cfi_def_cfa_register 29
	lw	$31,28($sp)
	lw	$fp,24($sp)
	lw	$16,20($sp)
	addiu	$sp,$sp,32
	.cfi_restore 16
	.cfi_restore 30
	.cfi_restore 31
	.cfi_def_cfa_offset 0
	jr	$31
	nop

	.set	macro
	.set	reorder
	.end	_Z16IPHeaderAssemblePhRjjj
	.cfi_endproc
$LFE22:
	.size	_Z16IPHeaderAssemblePhRjjj, .-_Z16IPHeaderAssemblePhRjjj
	.align	2
	.globl	_Z17UDPHeaderAssemblePhRjtt
$LFB23 = .
	.loc 2 119 0
	.cfi_startproc
	.set	nomips16
	.set	nomicromips
	.ent	_Z17UDPHeaderAssemblePhRjtt
	.type	_Z17UDPHeaderAssemblePhRjtt, @function
_Z17UDPHeaderAssemblePhRjtt:
	.frame	$fp,32,$31		# vars= 0, regs= 3/0, args= 16, gp= 0
	.mask	0xc0010000,-4
	.fmask	0x00000000,0
	.set	noreorder
	.set	nomacro
	addiu	$sp,$sp,-32
	.cfi_def_cfa_offset 32
	sw	$31,28($sp)
	sw	$fp,24($sp)
	sw	$16,20($sp)
	.cfi_offset 31, -4
	.cfi_offset 30, -8
	.cfi_offset 16, -12
	move	$fp,$sp
	.cfi_def_cfa_register 30
	sw	$4,32($fp)
	sw	$5,36($fp)
	move	$2,$6
	move	$3,$7
	sh	$2,40($fp)
	move	$2,$3
	sh	$2,44($fp)
	.loc 2 120 0
	lhu	$2,40($fp)
	move	$4,$2
	jal	_Z16change_endian_16t
	nop

	move	$3,$2
	lw	$2,32($fp)
	sh	$3,0($2)
	.loc 2 121 0
	lw	$2,32($fp)
	addiu	$16,$2,2
	lhu	$2,44($fp)
	move	$4,$2
	jal	_Z16change_endian_16t
	nop

	sh	$2,0($16)
	.loc 2 122 0
	lw	$2,36($fp)
	lw	$2,0($2)
	addiu	$3,$2,8
	lw	$2,36($fp)
	sw	$3,0($2)
	lw	$2,36($fp)
	lw	$2,0($2)
	andi	$3,$2,0xffff
	lw	$2,32($fp)
	addiu	$16,$2,4
	move	$4,$3
	jal	_Z16change_endian_16t
	nop

	sh	$2,0($16)
	.loc 2 123 0
	lw	$2,32($fp)
	addiu	$2,$2,6
	sh	$0,0($2)
	.loc 2 125 0
	nop
	move	$sp,$fp
	.cfi_def_cfa_register 29
	lw	$31,28($sp)
	lw	$fp,24($sp)
	lw	$16,20($sp)
	addiu	$sp,$sp,32
	.cfi_restore 16
	.cfi_restore 30
	.cfi_restore 31
	.cfi_def_cfa_offset 0
	jr	$31
	nop

	.set	macro
	.set	reorder
	.end	_Z17UDPHeaderAssemblePhRjtt
	.cfi_endproc
$LFE23:
	.size	_Z17UDPHeaderAssemblePhRjtt, .-_Z17UDPHeaderAssemblePhRjtt
	.align	2
	.globl	_Z11RIPAssemblePhRjRK9RipPacket
$LFB24 = .
	.loc 2 127 0
	.cfi_startproc
	.set	nomips16
	.set	nomicromips
	.ent	_Z11RIPAssemblePhRjRK9RipPacket
	.type	_Z11RIPAssemblePhRjRK9RipPacket, @function
_Z11RIPAssemblePhRjRK9RipPacket:
	.frame	$fp,40,$31		# vars= 8, regs= 3/0, args= 16, gp= 0
	.mask	0xc0010000,-4
	.fmask	0x00000000,0
	.set	noreorder
	.set	nomacro
	addiu	$sp,$sp,-40
	.cfi_def_cfa_offset 40
	sw	$31,36($sp)
	sw	$fp,32($sp)
	sw	$16,28($sp)
	.cfi_offset 31, -4
	.cfi_offset 30, -8
	.cfi_offset 16, -12
	move	$fp,$sp
	.cfi_def_cfa_register 30
	sw	$4,40($fp)
	sw	$5,44($fp)
	sw	$6,48($fp)
	.loc 2 128 0
	lw	$2,48($fp)
	lbu	$3,4($2)
	lw	$2,40($fp)
	sb	$3,0($2)
	.loc 2 129 0
	lw	$2,40($fp)
	addiu	$2,$2,1
	li	$3,2			# 0x2
	sb	$3,0($2)
	.loc 2 130 0
	lw	$2,40($fp)
	addiu	$2,$2,3
	sb	$0,0($2)
	lw	$3,40($fp)
	addiu	$3,$3,2
	lbu	$2,0($2)
	sb	$2,0($3)
	.loc 2 131 0
	lw	$2,44($fp)
	li	$3,4			# 0x4
	sw	$3,0($2)
$LBB7 = .
	.loc 2 132 0
	lw	$2,48($fp)
	lbu	$3,4($2)
	li	$2,1			# 0x1
	bne	$3,$2,$L23
	nop

	.loc 2 133 0
	lw	$2,44($fp)
	lw	$2,0($2)
	addiu	$2,$2,19
	lw	$3,40($fp)
	addu	$2,$3,$2
	li	$3,16			# 0x10
	sb	$3,0($2)
	.loc 2 134 0
	lw	$2,44($fp)
	lw	$2,0($2)
	addiu	$3,$2,20
	lw	$2,44($fp)
	sw	$3,0($2)
$LBE7 = .
	.loc 2 146 0
	b	$L27
	nop

$L23:
$LBB12 = .
$LBB8 = .
$LBB9 = .
	.loc 2 135 0
	lw	$2,48($fp)
	lbu	$3,4($2)
	li	$2,2			# 0x2
	bne	$3,$2,$L27
	nop

$LBB10 = .
$LBB11 = .
	.loc 2 136 0
	sw	$0,16($fp)
$L26:
	.loc 2 136 0 is_stmt 0 discriminator 3
	lw	$2,48($fp)
	lw	$3,0($2)
	lw	$2,16($fp)
	sltu	$2,$2,$3
	beq	$2,$0,$L27
	nop

	.loc 2 137 0 is_stmt 1 discriminator 2
	lw	$2,44($fp)
	lw	$2,0($2)
	lw	$3,40($fp)
	addu	$16,$3,$2
	li	$4,2			# 0x2
	jal	_Z16change_endian_16t
	nop

	sh	$2,0($16)
	.loc 2 138 0 discriminator 2
	lw	$2,44($fp)
	lw	$2,0($2)
	addiu	$2,$2,2
	lw	$3,40($fp)
	addu	$16,$3,$2
	move	$4,$0
	jal	_Z16change_endian_16t
	nop

	sh	$2,0($16)
	.loc 2 139 0 discriminator 2
	lw	$2,44($fp)
	lw	$2,0($2)
	addiu	$2,$2,4
	lw	$3,40($fp)
	addu	$3,$3,$2
	lw	$4,48($fp)
	lw	$2,16($fp)
	sll	$2,$2,4
	addu	$2,$4,$2
	lw	$2,8($2)
	sw	$2,0($3)
	.loc 2 140 0 discriminator 2
	lw	$2,44($fp)
	lw	$2,0($2)
	addiu	$2,$2,8
	lw	$3,40($fp)
	addu	$3,$3,$2
	lw	$4,48($fp)
	lw	$2,16($fp)
	sll	$2,$2,4
	addu	$2,$4,$2
	lw	$2,12($2)
	sw	$2,0($3)
	.loc 2 141 0 discriminator 2
	lw	$2,44($fp)
	lw	$2,0($2)
	addiu	$2,$2,12
	lw	$3,40($fp)
	addu	$2,$3,$2
	lw	$4,48($fp)
	lw	$3,16($fp)
	addiu	$3,$3,1
	sll	$3,$3,4
	addu	$3,$4,$3
	lw	$3,0($3)
	sw	$3,0($2)
	.loc 2 142 0 discriminator 2
	lw	$3,48($fp)
	lw	$2,16($fp)
	addiu	$2,$2,1
	sll	$2,$2,4
	addu	$2,$3,$2
	lw	$3,4($2)
	lw	$2,44($fp)
	lw	$2,0($2)
	addiu	$2,$2,16
	lw	$4,40($fp)
	addu	$2,$4,$2
	sll	$3,$3,24
	sw	$3,0($2)
	.loc 2 143 0 discriminator 2
	lw	$2,44($fp)
	lw	$2,0($2)
	addiu	$3,$2,20
	lw	$2,44($fp)
	sw	$3,0($2)
	.loc 2 136 0 discriminator 2
	lw	$2,16($fp)
	addiu	$2,$2,1
	sw	$2,16($fp)
	b	$L26
	nop

$L27:
$LBE11 = .
$LBE10 = .
$LBE9 = .
$LBE8 = .
$LBE12 = .
	.loc 2 146 0
	nop
	move	$sp,$fp
	.cfi_def_cfa_register 29
	lw	$31,36($sp)
	lw	$fp,32($sp)
	lw	$16,28($sp)
	addiu	$sp,$sp,40
	.cfi_restore 16
	.cfi_restore 30
	.cfi_restore 31
	.cfi_def_cfa_offset 0
	jr	$31
	nop

	.set	macro
	.set	reorder
	.end	_Z11RIPAssemblePhRjRK9RipPacket
	.cfi_endproc
$LFE24:
	.size	_Z11RIPAssemblePhRjRK9RipPacket, .-_Z11RIPAssemblePhRjRK9RipPacket
	.section	.text._Z11len_to_maski,"axG",@progbits,_Z11len_to_maski,comdat
	.align	2
	.weak	_Z11len_to_maski
$LFB25 = .
	.loc 2 148 0
	.cfi_startproc
	.set	nomips16
	.set	nomicromips
	.ent	_Z11len_to_maski
	.type	_Z11len_to_maski, @function
_Z11len_to_maski:
	.frame	$fp,8,$31		# vars= 0, regs= 1/0, args= 0, gp= 0
	.mask	0x40000000,-4
	.fmask	0x00000000,0
	.set	noreorder
	.set	nomacro
	addiu	$sp,$sp,-8
	.cfi_def_cfa_offset 8
	sw	$fp,4($sp)
	.cfi_offset 30, -4
	move	$fp,$sp
	.cfi_def_cfa_register 30
	sw	$4,8($fp)
	.loc 2 149 0
	lw	$4,8($fp)
	andi	$4,$4,0x20
	move	$8,$0
	li	$5,1			# 0x1
	srl	$6,$5,1
	lw	$7,8($fp)
	li	$5,-1			# 0xffffffffffffffff
	xor	$5,$7,$5
	srl	$5,$6,$5
	move	$7,$0
	lw	$6,8($fp)
	sll	$3,$7,$6
	or	$3,$5,$3
	li	$6,1			# 0x1
	lw	$5,8($fp)
	sll	$2,$6,$5
	movn	$3,$2,$4
	movn	$2,$8,$4
	addiu	$2,$2,-1
	.loc 2 150 0
	move	$sp,$fp
	.cfi_def_cfa_register 29
	lw	$fp,4($sp)
	addiu	$sp,$sp,8
	.cfi_restore 30
	.cfi_def_cfa_offset 0
	jr	$31
	nop

	.set	macro
	.set	reorder
	.end	_Z11len_to_maski
	.cfi_endproc
$LFE25:
	.size	_Z11len_to_maski, .-_Z11len_to_maski
	.text
	.align	2
	.globl	_Z19print_routing_tablev
$LFB26 = .
	.loc 2 152 0
	.cfi_startproc
	.set	nomips16
	.set	nomicromips
	.ent	_Z19print_routing_tablev
	.type	_Z19print_routing_tablev, @function
_Z19print_routing_tablev:
	.frame	$fp,32,$31		# vars= 8, regs= 2/0, args= 16, gp= 0
	.mask	0xc0000000,-4
	.fmask	0x00000000,0
	.set	noreorder
	.set	nomacro
	addiu	$sp,$sp,-32
	.cfi_def_cfa_offset 32
	sw	$31,28($sp)
	sw	$fp,24($sp)
	.cfi_offset 31, -4
	.cfi_offset 30, -8
	move	$fp,$sp
	.cfi_def_cfa_register 30
$LBB13 = .
	.loc 2 153 0
	sw	$0,16($fp)
$L32:
	.loc 2 153 0 is_stmt 0 discriminator 3
	lui	$2,%hi(rtable_stamp)
	lw	$2,%lo(rtable_stamp)($2)
	lw	$3,16($fp)
	slt	$2,$3,$2
	beq	$2,$0,$L33
	nop

	.loc 2 154 0 is_stmt 1 discriminator 2
	lui	$4,%hi(rtable)
	lw	$3,16($fp)
	move	$2,$3
	sll	$2,$2,2
	addu	$2,$2,$3
	sll	$2,$2,2
	addiu	$3,$4,%lo(rtable)
	addu	$2,$2,$3
	lw	$2,0($2)
	move	$4,$2
	jal	_Z22print_uint32_to_serialj
	nop

	.loc 2 155 0 discriminator 2
	lui	$2,%hi(rtable)
	lw	$3,16($fp)
	addiu	$4,$2,%lo(rtable)
	move	$2,$3
	sll	$2,$2,2
	addu	$2,$2,$3
	sll	$2,$2,2
	addu	$2,$4,$2
	lw	$2,4($2)
	move	$4,$2
	jal	_Z11len_to_maski
	nop

	move	$4,$2
	jal	_Z22print_uint32_to_serialj
	nop

	.loc 2 156 0 discriminator 2
	lui	$2,%hi(rtable)
	lw	$3,16($fp)
	addiu	$4,$2,%lo(rtable)
	move	$2,$3
	sll	$2,$2,2
	addu	$2,$2,$3
	sll	$2,$2,2
	addu	$2,$4,$2
	lw	$2,12($2)
	move	$4,$2
	jal	_Z22print_uint32_to_serialj
	nop

	.loc 2 157 0 discriminator 2
	lui	$4,%hi(rtable)
	lw	$3,16($fp)
	move	$2,$3
	sll	$2,$2,2
	addu	$2,$2,$3
	sll	$2,$2,2
	addiu	$3,$4,%lo(rtable)
	addu	$2,$2,$3
	lw	$2,16($2)
	andi	$2,$2,0x00ff
	move	$4,$2
	jal	_Z12write_serialh
	nop

	.loc 2 158 0 discriminator 2
	li	$4,10			# 0xa
	jal	_Z12write_serialh
	nop

	.loc 2 153 0 discriminator 2
	lw	$2,16($fp)
	addiu	$2,$2,1
	sw	$2,16($fp)
	b	$L32
	nop

$L33:
$LBE13 = .
	.loc 2 160 0
	nop
	move	$sp,$fp
	.cfi_def_cfa_register 29
	lw	$31,28($sp)
	lw	$fp,24($sp)
	addiu	$sp,$sp,32
	.cfi_restore 30
	.cfi_restore 31
	.cfi_def_cfa_offset 0
	jr	$31
	nop

	.set	macro
	.set	reorder
	.end	_Z19print_routing_tablev
	.cfi_endproc
$LFE26:
	.size	_Z19print_routing_tablev, .-_Z19print_routing_tablev
	.align	2
	.globl	_Z10broadtableiRi
$LFB27 = .
	.loc 2 162 0
	.cfi_startproc
	.set	nomips16
	.set	nomicromips
	.ent	_Z10broadtableiRi
	.type	_Z10broadtableiRi, @function
_Z10broadtableiRi:
	.frame	$fp,56,$31		# vars= 24, regs= 4/0, args= 16, gp= 0
	.mask	0xc0030000,-4
	.fmask	0x00000000,0
	.set	noreorder
	.set	nomacro
	addiu	$sp,$sp,-56
	.cfi_def_cfa_offset 56
	sw	$31,52($sp)
	sw	$fp,48($sp)
	sw	$17,44($sp)
	sw	$16,40($sp)
	.cfi_offset 31, -4
	.cfi_offset 30, -8
	.cfi_offset 17, -12
	.cfi_offset 16, -16
	move	$fp,$sp
	.cfi_def_cfa_register 30
	sw	$4,56($fp)
	sw	$5,60($fp)
	sw	$6,64($fp)
	.loc 2 163 0
	lw	$4,56($fp)
	jal	_ZN9RipPacketC1Ev
	nop

	.loc 2 164 0
	lw	$2,56($fp)
	li	$3,2			# 0x2
	sb	$3,4($2)
	.loc 2 165 0
	lw	$2,56($fp)
	li	$3,21845			# 0x5555
	sw	$3,0($2)
	.loc 2 166 0
	lw	$2,56($fp)
	sw	$0,0($2)
	.loc 2 167 0
	sw	$0,16($fp)
$L39:
$LBB14 = .
	.loc 2 168 0 discriminator 1
	lw	$2,64($fp)
	lw	$3,0($2)
	lui	$2,%hi(rtable_stamp)
	lw	$2,%lo(rtable_stamp)($2)
	slt	$2,$3,$2
	beq	$2,$0,$L41
	nop

$LBB15 = .
	.loc 2 169 0
	lw	$2,16($fp)
	addiu	$2,$2,1
	sw	$2,16($fp)
	lw	$2,16($fp)
	slt	$2,$2,26
	xori	$2,$2,0x1
	andi	$2,$2,0x00ff
	beq	$2,$0,$L36
	nop

	.loc 2 170 0
	nop
$LBE15 = .
$LBE14 = .
	.loc 2 187 0
	b	$L41
	nop

$L36:
$LBB17 = .
$LBB16 = .
	.loc 2 172 0
	lw	$2,56($fp)
	lw	$16,0($2)
	.loc 2 173 0
	lw	$2,64($fp)
	lw	$3,0($2)
	lui	$4,%hi(rtable)
	move	$2,$3
	sll	$2,$2,2
	addu	$2,$2,$3
	sll	$2,$2,2
	addiu	$3,$4,%lo(rtable)
	addu	$2,$2,$3
	lw	$17,0($2)
	.loc 2 174 0
	lw	$2,64($fp)
	lw	$3,0($2)
	lui	$2,%hi(rtable)
	addiu	$4,$2,%lo(rtable)
	move	$2,$3
	sll	$2,$2,2
	addu	$2,$2,$3
	sll	$2,$2,2
	addu	$2,$4,$2
	lw	$2,4($2)
	move	$4,$2
	jal	_Z11len_to_maski
	nop

	move	$6,$2
	.loc 2 175 0
	lw	$2,64($fp)
	lw	$3,0($2)
	lui	$2,%hi(rtable)
	addiu	$4,$2,%lo(rtable)
	move	$2,$3
	sll	$2,$2,2
	addu	$2,$2,$3
	sll	$2,$2,2
	addu	$2,$4,$2
	lw	$4,12($2)
	.loc 2 176 0
	lw	$2,64($fp)
	lw	$3,0($2)
	lui	$5,%hi(rtable)
	move	$2,$3
	sll	$2,$2,2
	addu	$2,$2,$3
	sll	$2,$2,2
	addiu	$3,$5,%lo(rtable)
	addu	$2,$2,$3
	lw	$3,8($2)
	lw	$2,60($fp)
	beq	$3,$2,$L37
	nop

	.loc 2 176 0 is_stmt 0 discriminator 1
	lw	$2,64($fp)
	lw	$3,0($2)
	lui	$5,%hi(rtable)
	move	$2,$3
	sll	$2,$2,2
	addu	$2,$2,$3
	sll	$2,$2,2
	addiu	$3,$5,%lo(rtable)
	addu	$2,$2,$3
	lw	$2,16($2)
	addiu	$3,$2,1
	b	$L38
	nop

$L37:
	.loc 2 176 0 discriminator 2
	li	$3,16			# 0x10
$L38:
	.loc 2 172 0 is_stmt 1
	lw	$5,56($fp)
	sll	$2,$16,4
	addu	$2,$5,$2
	sw	$17,8($2)
	lw	$5,56($fp)
	sll	$2,$16,4
	addu	$2,$5,$2
	sw	$6,12($2)
	lw	$5,56($fp)
	addiu	$2,$16,1
	sll	$2,$2,4
	addu	$2,$5,$2
	sw	$4,0($2)
	lw	$4,56($fp)
	addiu	$2,$16,1
	sll	$2,$2,4
	addu	$2,$4,$2
	sw	$3,4($2)
	.loc 2 178 0
	lw	$2,56($fp)
	lw	$2,0($2)
	lw	$3,56($fp)
	sll	$2,$2,4
	addu	$2,$3,$2
	lw	$5,8($2)
	lw	$4,12($2)
	lw	$3,16($2)
	lw	$2,20($2)
	sw	$5,20($fp)
	sw	$4,24($fp)
	sw	$3,28($fp)
	sw	$2,32($fp)
	.loc 2 182 0
	lw	$2,56($fp)
	lw	$2,0($2)
	addiu	$3,$2,1
	lw	$2,56($fp)
	sw	$3,0($2)
$LBE16 = .
	.loc 2 168 0
	lw	$2,64($fp)
	lw	$2,0($2)
	addiu	$3,$2,1
	lw	$2,64($fp)
	sw	$3,0($2)
	b	$L39
	nop

$L41:
$LBE17 = .
	.loc 2 187 0
	nop
	.loc 2 188 0
	lw	$2,56($fp)
	move	$sp,$fp
	.cfi_def_cfa_register 29
	lw	$31,52($sp)
	lw	$fp,48($sp)
	lw	$17,44($sp)
	lw	$16,40($sp)
	addiu	$sp,$sp,56
	.cfi_restore 16
	.cfi_restore 17
	.cfi_restore 30
	.cfi_restore 31
	.cfi_def_cfa_offset 0
	jr	$31
	nop

	.set	macro
	.set	reorder
	.end	_Z10broadtableiRi
	.cfi_endproc
$LFE27:
	.size	_Z10broadtableiRi, .-_Z10broadtableiRi
	.align	2
	.globl	_Z7requirev
$LFB28 = .
	.loc 2 190 0
	.cfi_startproc
	.set	nomips16
	.set	nomicromips
	.ent	_Z7requirev
	.type	_Z7requirev, @function
_Z7requirev:
	.frame	$fp,24,$31		# vars= 0, regs= 2/0, args= 16, gp= 0
	.mask	0xc0000000,-4
	.fmask	0x00000000,0
	.set	noreorder
	.set	nomacro
	addiu	$sp,$sp,-24
	.cfi_def_cfa_offset 24
	sw	$31,20($sp)
	sw	$fp,16($sp)
	.cfi_offset 31, -4
	.cfi_offset 30, -8
	move	$fp,$sp
	.cfi_def_cfa_register 30
	sw	$4,24($fp)
	.loc 2 191 0
	lw	$4,24($fp)
	jal	_ZN9RipPacketC1Ev
	nop

	.loc 2 192 0
	lw	$2,24($fp)
	li	$3,1			# 0x1
	sb	$3,4($2)
	.loc 2 193 0
	lw	$2,24($fp)
	li	$3,1			# 0x1
	sw	$3,0($2)
	.loc 2 194 0
	lw	$2,24($fp)
	sw	$0,8($2)
	lw	$2,24($fp)
	sw	$0,12($2)
	lw	$2,24($fp)
	sw	$0,16($2)
	lw	$2,24($fp)
	li	$3,16			# 0x10
	sw	$3,20($2)
	.loc 2 200 0
	nop
	.loc 2 201 0
	lw	$2,24($fp)
	move	$sp,$fp
	.cfi_def_cfa_register 29
	lw	$31,20($sp)
	lw	$fp,16($sp)
	addiu	$sp,$sp,24
	.cfi_restore 30
	.cfi_restore 31
	.cfi_def_cfa_offset 0
	jr	$31
	nop

	.set	macro
	.set	reorder
	.end	_Z7requirev
	.cfi_endproc
$LFE28:
	.size	_Z7requirev, .-_Z7requirev
	.align	2
	.globl	_Z11mask_to_lenj
$LFB30 = .
	.loc 2 207 0
	.cfi_startproc
	.set	nomips16
	.set	nomicromips
	.ent	_Z11mask_to_lenj
	.type	_Z11mask_to_lenj, @function
_Z11mask_to_lenj:
	.frame	$fp,16,$31		# vars= 8, regs= 1/0, args= 0, gp= 0
	.mask	0x40000000,-4
	.fmask	0x00000000,0
	.set	noreorder
	.set	nomacro
	addiu	$sp,$sp,-16
	.cfi_def_cfa_offset 16
	sw	$fp,12($sp)
	.cfi_offset 30, -4
	move	$fp,$sp
	.cfi_def_cfa_register 30
	sw	$4,16($fp)
	.loc 2 208 0
	sw	$0,0($fp)
$LBB18 = .
	.loc 2 209 0
	li	$2,4			# 0x4
	sw	$2,4($fp)
$L47:
	.loc 2 209 0 is_stmt 0 discriminator 1
	lw	$2,4($fp)
	bltz	$2,$L45
	nop

	.loc 2 210 0 is_stmt 1
	li	$3,1			# 0x1
	lw	$2,4($fp)
	sll	$2,$3,$2
	li	$3,1			# 0x1
	sll	$2,$3,$2
	addiu	$2,$2,-1
	move	$3,$2
	lw	$2,16($fp)
	and	$2,$3,$2
	li	$4,1			# 0x1
	lw	$3,4($fp)
	sll	$3,$4,$3
	li	$4,1			# 0x1
	sll	$3,$4,$3
	addiu	$3,$3,-1
	bne	$2,$3,$L46
	nop

	.loc 2 211 0
	li	$3,1			# 0x1
	lw	$2,4($fp)
	sll	$2,$3,$2
	lw	$3,0($fp)
	addu	$2,$3,$2
	sw	$2,0($fp)
$L46:
	.loc 2 213 0 discriminator 2
	li	$3,1			# 0x1
	lw	$2,4($fp)
	sll	$2,$3,$2
	lw	$3,16($fp)
	srl	$2,$3,$2
	sw	$2,16($fp)
	.loc 2 209 0 discriminator 2
	lw	$2,4($fp)
	addiu	$2,$2,-1
	sw	$2,4($fp)
	b	$L47
	nop

$L45:
$LBE18 = .
	.loc 2 215 0
	lw	$3,0($fp)
	lw	$2,16($fp)
	addu	$2,$3,$2
	.loc 2 216 0
	move	$sp,$fp
	.cfi_def_cfa_register 29
	lw	$fp,12($sp)
	addiu	$sp,$sp,16
	.cfi_restore 30
	.cfi_def_cfa_offset 0
	jr	$31
	nop

	.set	macro
	.set	reorder
	.end	_Z11mask_to_lenj
	.cfi_endproc
$LFE30:
	.size	_Z11mask_to_lenj, .-_Z11mask_to_lenj
	.align	2
	.globl	_Z19toRoutingTableEntryP8RipEntryi
$LFB31 = .
	.loc 2 218 0
	.cfi_startproc
	.set	nomips16
	.set	nomicromips
	.ent	_Z19toRoutingTableEntryP8RipEntryi
	.type	_Z19toRoutingTableEntryP8RipEntryi, @function
_Z19toRoutingTableEntryP8RipEntryi:
	.frame	$fp,24,$31		# vars= 0, regs= 2/0, args= 16, gp= 0
	.mask	0xc0000000,-4
	.fmask	0x00000000,0
	.set	noreorder
	.set	nomacro
	addiu	$sp,$sp,-24
	.cfi_def_cfa_offset 24
	sw	$31,20($sp)
	sw	$fp,16($sp)
	.cfi_offset 31, -4
	.cfi_offset 30, -8
	move	$fp,$sp
	.cfi_def_cfa_register 30
	sw	$4,24($fp)
	sw	$5,28($fp)
	sw	$6,32($fp)
	.loc 2 220 0
	lw	$2,28($fp)
	lw	$3,0($2)
	.loc 2 225 0
	lw	$2,24($fp)
	sw	$3,0($2)
	.loc 2 221 0
	lw	$2,28($fp)
	lw	$2,4($2)
	move	$4,$2
	jal	_Z11mask_to_lenj
	nop

	move	$3,$2
	.loc 2 225 0
	lw	$2,24($fp)
	sw	$3,4($2)
	.loc 2 222 0
	lw	$3,32($fp)
	.loc 2 225 0
	lw	$2,24($fp)
	sw	$3,8($2)
	.loc 2 223 0
	lw	$2,28($fp)
	lw	$3,8($2)
	.loc 2 225 0
	lw	$2,24($fp)
	sw	$3,12($2)
	.loc 2 224 0
	lw	$2,28($fp)
	lw	$3,12($2)
	.loc 2 225 0
	lw	$2,24($fp)
	sw	$3,16($2)
	.loc 2 226 0
	nop
	.loc 2 227 0
	lw	$2,24($fp)
	move	$sp,$fp
	.cfi_def_cfa_register 29
	lw	$31,20($sp)
	lw	$fp,16($sp)
	addiu	$sp,$sp,24
	.cfi_restore 30
	.cfi_restore 31
	.cfi_def_cfa_offset 0
	jr	$31
	nop

	.set	macro
	.set	reorder
	.end	_Z19toRoutingTableEntryP8RipEntryi
	.cfi_endproc
$LFE31:
	.size	_Z19toRoutingTableEntryP8RipEntryi, .-_Z19toRoutingTableEntryP8RipEntryi
	.globl	multicasting_ip
	.data
	.align	2
	.type	multicasting_ip, @object
	.size	multicasting_ip, 4
multicasting_ip:
	.word	150995168
	.globl	multicasting_mac
	.align	2
	.type	multicasting_mac, @object
	.size	multicasting_mac, 6
multicasting_mac:
	.byte	1
	.byte	0
	.byte	94
	.byte	0
	.byte	0
	.byte	9
	.text
	.align	2
	.globl	_Z9broadcasti
$LFB32 = .
	.loc 2 232 0
	.cfi_startproc
	.set	nomips16
	.set	nomicromips
	.ent	_Z9broadcasti
	.type	_Z9broadcasti, @function
_Z9broadcasti:
	.frame	$fp,448,$31		# vars= 416, regs= 3/0, args= 16, gp= 0
	.mask	0xc0010000,-4
	.fmask	0x00000000,0
	.set	noreorder
	.set	nomacro
	addiu	$sp,$sp,-448
	.cfi_def_cfa_offset 448
	sw	$31,444($sp)
	sw	$fp,440($sp)
	sw	$16,436($sp)
	.cfi_offset 31, -4
	.cfi_offset 30, -8
	.cfi_offset 16, -12
	move	$fp,$sp
	.cfi_def_cfa_register 30
	sw	$4,448($fp)
$LBB19 = .
	.loc 2 233 0
	sw	$0,424($fp)
$L53:
	.loc 2 233 0 is_stmt 0 discriminator 1
	lw	$3,424($fp)
	lui	$2,%hi(rtable_stamp)
	lw	$2,%lo(rtable_stamp)($2)
	slt	$2,$3,$2
	beq	$2,$0,$L54
	nop

	.loc 2 234 0 is_stmt 1
	lui	$2,%hi(output+28)
	addiu	$16,$2,%lo(output+28)
	lui	$2,%hi(out_len)
	sw	$0,%lo(out_len)($2)
	addiu	$2,$fp,424
	move	$6,$2
	lw	$5,448($fp)
	addiu	$2,$fp,16
	move	$4,$2
	jal	_Z10broadtableiRi
	nop

	addiu	$2,$fp,16
	move	$6,$2
	lui	$2,%hi(out_len)
	addiu	$5,$2,%lo(out_len)
	move	$4,$16
	jal	_Z11RIPAssemblePhRjRK9RipPacket
	nop

	.loc 2 235 0
	lui	$2,%hi(output+20)
	addiu	$3,$2,%lo(output+20)
	li	$7,520			# 0x208
	li	$6,520			# 0x208
	lui	$2,%hi(out_len)
	addiu	$5,$2,%lo(out_len)
	move	$4,$3
	jal	_Z17UDPHeaderAssemblePhRjtt
	nop

	.loc 2 236 0
	lui	$2,%hi(addrs)
	lw	$3,448($fp)
	sll	$3,$3,2
	addiu	$2,$2,%lo(addrs)
	addu	$2,$3,$2
	lw	$3,0($2)
	lui	$2,%hi(multicasting_ip)
	lw	$2,%lo(multicasting_ip)($2)
	move	$7,$2
	move	$6,$3
	lui	$2,%hi(out_len)
	addiu	$5,$2,%lo(out_len)
	lui	$2,%hi(output)
	addiu	$4,$2,%lo(output)
	jal	_Z16IPHeaderAssemblePhRjjj
	nop

	.loc 2 241 0
	lui	$2,%hi(out_len)
	lw	$3,%lo(out_len)($2)
	lui	$2,%hi(multicasting_mac)
	addiu	$7,$2,%lo(multicasting_mac)
	move	$6,$3
	lui	$2,%hi(output)
	addiu	$5,$2,%lo(output)
	lw	$4,448($fp)
	jal	HAL_SendIPPacket
	nop

	.loc 2 233 0
	b	$L53
	nop

$L54:
$LBE19 = .
	.loc 2 243 0
	nop
	move	$sp,$fp
	.cfi_def_cfa_register 29
	lw	$31,444($sp)
	lw	$fp,440($sp)
	lw	$16,436($sp)
	addiu	$sp,$sp,448
	.cfi_restore 16
	.cfi_restore 30
	.cfi_restore 31
	.cfi_def_cfa_offset 0
	jr	$31
	nop

	.set	macro
	.set	reorder
	.end	_Z9broadcasti
	.cfi_endproc
$LFE32:
	.size	_Z9broadcasti, .-_Z9broadcasti
	.align	2
	.globl	_Z6memcmpPvPKvj
$LFB33 = .
	.loc 2 246 0
	.cfi_startproc
	.set	nomips16
	.set	nomicromips
	.ent	_Z6memcmpPvPKvj
	.type	_Z6memcmpPvPKvj, @function
_Z6memcmpPvPKvj:
	.frame	$fp,16,$31		# vars= 8, regs= 1/0, args= 0, gp= 0
	.mask	0x40000000,-4
	.fmask	0x00000000,0
	.set	noreorder
	.set	nomacro
	addiu	$sp,$sp,-16
	.cfi_def_cfa_offset 16
	sw	$fp,12($sp)
	.cfi_offset 30, -4
	move	$fp,$sp
	.cfi_def_cfa_register 30
	sw	$4,16($fp)
	sw	$5,20($fp)
	sw	$6,24($fp)
	.loc 2 248 0
	lw	$2,20($fp)
	sw	$2,0($fp)
	.loc 2 249 0
	lw	$2,16($fp)
	sw	$2,4($fp)
$L59:
	.loc 2 250 0
	lw	$2,24($fp)
	addiu	$3,$2,-1
	sw	$3,24($fp)
	sltu	$2,$0,$2
	andi	$2,$2,0x00ff
	beq	$2,$0,$L56
	nop

	.loc 2 251 0
	lw	$2,4($fp)
	addiu	$3,$2,1
	sw	$3,4($fp)
	lbu	$3,0($2)
	lw	$2,0($fp)
	addiu	$4,$2,1
	sw	$4,0($fp)
	lbu	$2,0($2)
	xor	$2,$3,$2
	sltu	$2,$0,$2
	andi	$2,$2,0x00ff
	beq	$2,$0,$L59
	nop

	.loc 2 252 0
	li	$2,1			# 0x1
	b	$L58
	nop

$L56:
	.loc 2 254 0
	move	$2,$0
$L58:
	.loc 2 255 0
	move	$sp,$fp
	.cfi_def_cfa_register 29
	lw	$fp,12($sp)
	addiu	$sp,$sp,16
	.cfi_restore 30
	.cfi_def_cfa_offset 0
	jr	$31
	nop

	.set	macro
	.set	reorder
	.end	_Z6memcmpPvPKvj
	.cfi_endproc
$LFE33:
	.size	_Z6memcmpPvPKvj, .-_Z6memcmpPvPKvj
	.rdata
	.align	2
$LC0:
	.ascii	"RIP: Require\012\000"
	.align	2
$LC1:
	.ascii	"%1X%1X \000"
	.align	2
$LC2:
	.ascii	"\012\000"
	.align	2
$LC3:
	.ascii	"Start\012\000"
	.align	2
$LC4:
	.ascii	"RIP: Broadcasting\012\000"
	.align	2
$LC5:
	.ascii	"Packet is truncated, ignore it\012\000"
	.align	2
$LC6:
	.ascii	"Get a packet with length of %X\012\000"
	.align	2
$LC7:
	.ascii	"Invalid IP Checksum len %d\012\000"
	.align	2
$LC8:
	.ascii	"Receive RIP packet \000"
	.align	2
$LC9:
	.ascii	"Commond: request\012\000"
	.align	2
$LC10:
	.ascii	"Commond: response %d\012\000"
	.align	2
$LC11:
	.ascii	"Update: %d record(s) %d\012\000"
	.align	2
$LC12:
	.ascii	"Warning!!! Invalide RIP Packet Received\012\000"
	.text
	.align	2
	.globl	main
$LFB34 = .
	.loc 2 282 0
	.cfi_startproc
	.set	nomips16
	.set	nomicromips
	.ent	main
	.type	main, @function
main:
	.frame	$fp,1432,$31		# vars= 1376, regs= 4/0, args= 40, gp= 0
	.mask	0xc0030000,-4
	.fmask	0x00000000,0
	.set	noreorder
	.set	nomacro
	addiu	$sp,$sp,-1432
	.cfi_def_cfa_offset 1432
	sw	$31,1428($sp)
	sw	$fp,1424($sp)
	sw	$17,1420($sp)
	sw	$16,1416($sp)
	.cfi_offset 31, -4
	.cfi_offset 30, -8
	.cfi_offset 17, -12
	.cfi_offset 16, -16
	move	$fp,$sp
	.cfi_def_cfa_register 30
	sw	$4,1432($fp)
	sw	$5,1436($fp)
	.loc 2 286 0
	lui	$2,%hi(addrs)
	addiu	$5,$2,%lo(addrs)
	li	$4,1			# 0x1
	jal	HAL_Init
	nop

	sw	$2,84($fp)
	.loc 2 287 0
	lw	$2,84($fp)
	bgez	$2,$L61
	nop

	.loc 2 288 0
	lw	$2,84($fp)
	b	$L62
	nop

$L61:
$LBB20 = .
	.loc 2 297 0
	sw	$0,40($fp)
$L64:
	.loc 2 297 0 is_stmt 0 discriminator 1
	lw	$2,40($fp)
	sltu	$2,$2,4
	beq	$2,$0,$L63
	nop

$LBB21 = .
	.loc 2 298 0 is_stmt 1
	sw	$0,516($fp)
	sw	$0,520($fp)
	sw	$0,524($fp)
	sw	$0,528($fp)
	sw	$0,532($fp)
	li	$2,8			# 0x8
	sw	$2,520($fp)
	.loc 2 299 0
	lui	$2,%hi(addrs)
	lw	$3,40($fp)
	sll	$3,$3,2
	addiu	$2,$2,%lo(addrs)
	addu	$2,$3,$2
	lw	$16,0($2)
	li	$4,8			# 0x8
	jal	_Z11len_to_maski
	nop

	and	$2,$16,$2
	.loc 2 304 0
	sw	$2,516($fp)
	lw	$2,40($fp)
	sw	$2,524($fp)
	.loc 2 309 0
	lw	$3,528($fp)
	lw	$2,532($fp)
	sw	$3,16($sp)
	sw	$2,20($sp)
	lw	$5,516($fp)
	lw	$6,520($fp)
	lw	$7,524($fp)
	li	$4,1			# 0x1
	jal	_Z6updateb17RoutingTableEntry
	nop

	.loc 2 310 0
	lw	$3,40($fp)
	lw	$4,528($fp)
	lw	$5,516($fp)
	lw	$2,520($fp)
	andi	$2,$2,0x00ff
	sw	$2,16($sp)
	move	$7,$5
	move	$6,$4
	li	$5,1			# 0x1
	move	$4,$3
	jal	HAL_UpdateRoutingTable
	nop

$LBE21 = .
	.loc 2 297 0
	lw	$2,40($fp)
	addiu	$2,$2,1
	sw	$2,40($fp)
	b	$L64
	nop

$L63:
$LBE20 = .
	.loc 2 315 0
	lui	$2,%hi($LC0)
	addiu	$4,$2,%lo($LC0)
	jal	_Z3ERRPKcz
	nop

$LBB22 = .
	.loc 2 316 0
	sw	$0,44($fp)
$L68:
	.loc 2 316 0 is_stmt 0 discriminator 1
	lw	$2,44($fp)
	slt	$2,$2,4
	beq	$2,$0,$L65
	nop

$LBB23 = .
	.loc 2 317 0 is_stmt 1
	lui	$2,%hi(output+28)
	addiu	$16,$2,%lo(output+28)
	lui	$2,%hi(out_len)
	sw	$0,%lo(out_len)($2)
	addiu	$2,$fp,108
	move	$4,$2
	jal	_Z7requirev
	nop

	addiu	$2,$fp,108
	move	$6,$2
	lui	$2,%hi(out_len)
	addiu	$5,$2,%lo(out_len)
	move	$4,$16
	jal	_Z11RIPAssemblePhRjRK9RipPacket
	nop

	.loc 2 318 0
	lui	$2,%hi(output+20)
	addiu	$3,$2,%lo(output+20)
	li	$7,520			# 0x208
	li	$6,520			# 0x208
	lui	$2,%hi(out_len)
	addiu	$5,$2,%lo(out_len)
	move	$4,$3
	jal	_Z17UDPHeaderAssemblePhRjtt
	nop

	.loc 2 319 0
	lui	$2,%hi(addrs)
	lw	$3,44($fp)
	sll	$3,$3,2
	addiu	$2,$2,%lo(addrs)
	addu	$2,$3,$2
	lw	$3,0($2)
	lui	$2,%hi(multicasting_ip)
	lw	$2,%lo(multicasting_ip)($2)
	move	$7,$2
	move	$6,$3
	lui	$2,%hi(out_len)
	addiu	$5,$2,%lo(out_len)
	lui	$2,%hi(output)
	addiu	$4,$2,%lo(output)
	jal	_Z16IPHeaderAssemblePhRjjj
	nop

$LBB24 = .
	.loc 2 320 0
	sw	$0,48($fp)
$L67:
	.loc 2 320 0 is_stmt 0 discriminator 3
	lw	$3,48($fp)
	lui	$2,%hi(out_len)
	lw	$2,%lo(out_len)($2)
	sltu	$2,$3,$2
	beq	$2,$0,$L66
	nop

	.loc 2 321 0 is_stmt 1 discriminator 2
	lui	$2,%hi(output)
	addiu	$3,$2,%lo(output)
	lw	$2,48($fp)
	addu	$2,$3,$2
	lbu	$2,0($2)
	sra	$4,$2,4
	lui	$2,%hi(output)
	addiu	$3,$2,%lo(output)
	lw	$2,48($fp)
	addu	$2,$3,$2
	lbu	$2,0($2)
	andi	$2,$2,0xf
	move	$6,$2
	move	$5,$4
	lui	$2,%hi($LC1)
	addiu	$4,$2,%lo($LC1)
	jal	_Z3ERRPKcz
	nop

	.loc 2 320 0 discriminator 2
	lw	$2,48($fp)
	addiu	$2,$2,1
	sw	$2,48($fp)
	b	$L67
	nop

$L66:
$LBE24 = .
	.loc 2 324 0 discriminator 2
	lui	$2,%hi($LC2)
	addiu	$4,$2,%lo($LC2)
	jal	_Z3ERRPKcz
	nop

	.loc 2 325 0 discriminator 2
	lui	$2,%hi(out_len)
	lw	$3,%lo(out_len)($2)
	lui	$2,%hi(multicasting_mac)
	addiu	$7,$2,%lo(multicasting_mac)
	move	$6,$3
	lui	$2,%hi(output)
	addiu	$5,$2,%lo(output)
	lw	$4,44($fp)
	jal	HAL_SendIPPacket
	nop

	.loc 2 326 0 discriminator 2
	lui	$2,%hi(out_len)
	lw	$2,%lo(out_len)($2)
	addiu	$3,$2,-20
	lui	$2,%hi(out_len)
	sw	$3,%lo(out_len)($2)
$LBE23 = .
	.loc 2 316 0 discriminator 2
	lw	$2,44($fp)
	addiu	$2,$2,1
	sw	$2,44($fp)
	b	$L68
	nop

$L65:
$LBE22 = .
	.loc 2 329 0
	jal	HAL_GetTicks
	nop

	sw	$2,56($fp)
	sw	$3,60($fp)
$LBB25 = .
	.loc 2 331 0
	sw	$0,64($fp)
$L70:
	.loc 2 331 0 is_stmt 0 discriminator 3
	lw	$2,64($fp)
	slt	$2,$2,4
	beq	$2,$0,$L69
	nop

	.loc 2 332 0 is_stmt 1 discriminator 2
	lw	$4,64($fp)
	jal	_Z9broadcasti
	nop

	.loc 2 333 0 discriminator 2
	lui	$2,%hi(out_len)
	lw	$2,%lo(out_len)($2)
	addiu	$3,$2,-20
	lui	$2,%hi(out_len)
	sw	$3,%lo(out_len)($2)
	.loc 2 331 0 discriminator 2
	lw	$2,64($fp)
	addiu	$2,$2,1
	sw	$2,64($fp)
	b	$L70
	nop

$L69:
$LBE25 = .
$LBB26 = .
	.loc 2 339 0
	lui	$2,%hi($LC3)
	addiu	$4,$2,%lo($LC3)
	jal	_Z3ERRPKcz
	nop

	.loc 2 340 0
	jal	HAL_GetTicks
	nop

	sw	$2,88($fp)
	sw	$3,92($fp)
$LBB27 = .
	.loc 2 341 0
	lw	$4,56($fp)
	lw	$5,60($fp)
	li	$6,250			# 0xfa
	move	$7,$0
	addu	$2,$4,$6
	sltu	$8,$2,$4
	addu	$3,$5,$7
	addu	$4,$8,$3
	move	$3,$4
	lw	$4,92($fp)
	sltu	$4,$3,$4
	bne	$4,$0,$L99
	nop

	lw	$4,92($fp)
	move	$5,$3
	bne	$4,$5,$L71
	nop

	lw	$4,88($fp)
	sltu	$2,$2,$4
	beq	$2,$0,$L71
	nop

$L99:
$LBB28 = .
	.loc 2 345 0
	lui	$2,%hi($LC4)
	addiu	$4,$2,%lo($LC4)
	jal	_Z3ERRPKcz
	nop

$LBB29 = .
	.loc 2 346 0
	sw	$0,68($fp)
$L74:
	.loc 2 346 0 is_stmt 0 discriminator 1
	lw	$2,68($fp)
	slt	$2,$2,4
	beq	$2,$0,$L73
	nop

	.loc 2 347 0 is_stmt 1
	lw	$4,68($fp)
	jal	_Z9broadcasti
	nop

	.loc 2 348 0
	li	$4,119			# 0x77
	jal	_Z22print_signal_to_serialh
	nop

	.loc 2 349 0
	lui	$2,%hi(out_len)
	lw	$2,%lo(out_len)($2)
	andi	$2,$2,0x00ff
	move	$4,$2
	jal	_Z12write_serialh
	nop

	.loc 2 350 0
	lui	$2,%hi(rtable_stamp)
	lw	$2,%lo(rtable_stamp)($2)
	andi	$2,$2,0x00ff
	move	$4,$2
	jal	_Z12write_serialh
	nop

	.loc 2 351 0
	lui	$2,%hi(out_len)
	lw	$2,%lo(out_len)($2)
	addiu	$3,$2,-20
	lui	$2,%hi(out_len)
	sw	$3,%lo(out_len)($2)
	.loc 2 346 0
	lw	$2,68($fp)
	addiu	$2,$2,1
	sw	$2,68($fp)
	b	$L74
	nop

$L73:
$LBE29 = .
	.loc 2 353 0
	lw	$2,88($fp)
	lw	$3,92($fp)
	sw	$2,56($fp)
	sw	$3,60($fp)
$L71:
$LBE28 = .
$LBE27 = .
	.loc 2 356 0
	li	$2,15			# 0xf
	sw	$2,96($fp)
	.loc 2 360 0
	li	$4,34			# 0x22
	jal	_Z22print_signal_to_serialh
	nop

	.loc 2 361 0
	addiu	$4,$fp,536
	addiu	$2,$fp,552
	sw	$2,32($sp)
	li	$2,1000			# 0x3e8
	move	$3,$0
	sw	$2,24($sp)
	sw	$3,28($sp)
	addiu	$2,$fp,544
	sw	$2,16($sp)
	move	$7,$4
	li	$6,2048			# 0x800
	lui	$2,%hi(packet)
	addiu	$5,$2,%lo(packet)
	lw	$4,96($fp)
	jal	HAL_ReceiveIPPacket
	nop

	sw	$2,84($fp)
	.loc 2 363 0
	lw	$3,84($fp)
	li	$2,-996			# 0xfffffffffffffc1c
	bne	$3,$2,$L75
	nop

$LBE26 = .
	.loc 2 503 0
	move	$2,$0
	b	$L62
	nop

$L75:
$LBB42 = .
	.loc 2 365 0
	lw	$2,84($fp)
	bgez	$2,$L76
	nop

	.loc 2 366 0
	lw	$2,84($fp)
	b	$L62
	nop

$L76:
	.loc 2 367 0
	lw	$2,84($fp)
	beq	$2,$0,$L100
	nop

	.loc 2 370 0
	lw	$2,84($fp)
	sltu	$2,$2,2049
	bne	$2,$0,$L79
	nop

	.loc 2 371 0 discriminator 1
	lui	$2,%hi($LC5)
	addiu	$4,$2,%lo($LC5)
	jal	_Z3ERRPKcz
	nop

	.loc 2 372 0 discriminator 1
	b	$L98
	nop

$L79:
	.loc 2 374 0
	lui	$2,%hi(packet)
	addiu	$2,$2,%lo(packet)
	lbu	$2,2($2)
	sll	$2,$2,8
	lui	$3,%hi(packet)
	addiu	$3,$3,%lo(packet)
	lbu	$3,3($3)
	xor	$2,$2,$3
	sw	$2,100($fp)
	.loc 2 375 0
	lw	$5,100($fp)
	lui	$2,%hi($LC6)
	addiu	$4,$2,%lo($LC6)
	jal	_Z3ERRPKcz
	nop

	.loc 2 380 0
	lw	$2,84($fp)
	move	$5,$2
	lui	$2,%hi(packet)
	addiu	$4,$2,%lo(packet)
	jal	_Z18validateIPChecksumPhj
	nop

	xori	$2,$2,0x1
	andi	$2,$2,0x00ff
	beq	$2,$0,$L80
	nop

	.loc 2 389 0 discriminator 2
	lw	$5,84($fp)
	lui	$2,%hi($LC7)
	addiu	$4,$2,%lo($LC7)
	jal	_Z3ERRPKcz
	nop

	.loc 2 390 0 discriminator 2
	b	$L98
	nop

$L80:
	.loc 2 392 0
	li	$4,51			# 0x33
	jal	_Z22print_signal_to_serialh
	nop

	.loc 2 394 0
	lui	$2,%hi(packet)
	addiu	$2,$2,%lo(packet)
	lw	$2,12($2)
	sw	$2,104($fp)
	.loc 2 395 0
	lui	$2,%hi(packet)
	addiu	$2,$2,%lo(packet)
	lw	$2,16($2)
	sw	$2,556($fp)
	.loc 2 397 0
	sb	$0,72($fp)
$LBB30 = .
	.loc 2 398 0
	sw	$0,76($fp)
$L83:
	.loc 2 398 0 is_stmt 0 discriminator 1
	lw	$2,76($fp)
	slt	$2,$2,4
	beq	$2,$0,$L81
	nop

	.loc 2 399 0 is_stmt 1
	lw	$2,76($fp)
	sll	$3,$2,2
	lui	$2,%hi(addrs)
	addiu	$2,$2,%lo(addrs)
	addu	$3,$3,$2
	addiu	$2,$fp,556
	li	$6,4			# 0x4
	move	$5,$3
	move	$4,$2
	jal	_Z6memcmpPvPKvj
	nop

	sltu	$2,$2,1
	andi	$2,$2,0x00ff
	beq	$2,$0,$L82
	nop

	.loc 2 401 0
	li	$2,1			# 0x1
	sb	$2,72($fp)
	.loc 2 402 0
	b	$L81
	nop

$L82:
	.loc 2 398 0 discriminator 2
	lw	$2,76($fp)
	addiu	$2,$2,1
	sw	$2,76($fp)
	b	$L83
	nop

$L81:
$LBE30 = .
	.loc 2 406 0
	lw	$2,556($fp)
	andi	$3,$2,0xe0
	li	$2,224			# 0xe0
	bne	$3,$2,$L84
	nop

	.loc 2 407 0
	li	$2,1			# 0x1
	sb	$2,72($fp)
$L84:
$LBB31 = .
	.loc 2 411 0
	lbu	$2,72($fp)
	beq	$2,$0,$L69
	nop

$LBB32 = .
	.loc 2 412 0
	li	$4,68			# 0x44
	jal	_Z22print_signal_to_serialh
	nop

	.loc 2 415 0
	addiu	$2,$fp,1008
	move	$4,$2
	jal	_ZN9RipPacketC1Ev
	nop

$LBB33 = .
	.loc 2 416 0
	addiu	$2,$fp,1008
	move	$6,$2
	lw	$5,100($fp)
	lui	$2,%hi(packet)
	addiu	$4,$2,%lo(packet)
	jal	_Z11disassemblePKhjR9RipPacket
	nop

	beq	$2,$0,$L86
	nop

$LBB34 = .
	.loc 2 417 0
	lui	$2,%hi($LC8)
	addiu	$4,$2,%lo($LC8)
	jal	_Z3ERRPKcz
	nop

$LBB35 = .
	.loc 2 418 0
	lbu	$3,1012($fp)
	li	$2,1			# 0x1
	bne	$3,$2,$L87
	nop

	.loc 2 419 0
	li	$4,85			# 0x55
	jal	_Z22print_signal_to_serialh
	nop

	.loc 2 421 0
	lui	$2,%hi($LC9)
	addiu	$4,$2,%lo($LC9)
	jal	_Z3ERRPKcz
	nop

	.loc 2 422 0
	lw	$2,552($fp)
	move	$4,$2
	jal	_Z9broadcasti
	nop

	b	$L69
	nop

$L87:
$LBB36 = .
	.loc 2 427 0
	li	$4,102			# 0x66
	jal	_Z22print_signal_to_serialh
	nop

	.loc 2 429 0
	addiu	$2,$fp,600
	move	$4,$2
	jal	_ZN9RipPacketC1Ev
	nop

	.loc 2 430 0
	li	$2,2			# 0x2
	sb	$2,604($fp)
	.loc 2 431 0
	sw	$0,600($fp)
	.loc 2 432 0
	lw	$2,1008($fp)
	move	$5,$2
	lui	$2,%hi($LC10)
	addiu	$4,$2,%lo($LC10)
	jal	_Z3ERRPKcz
	nop

$LBB37 = .
	.loc 2 437 0
	sw	$0,80($fp)
$L95:
	.loc 2 437 0 is_stmt 0 discriminator 1
	lw	$3,1008($fp)
	lw	$2,80($fp)
	sltu	$2,$2,$3
	beq	$2,$0,$L89
	nop

$LBB38 = .
$LBB39 = .
	.loc 2 437 0 discriminator 2
	lw	$2,80($fp)
	addiu	$2,$2,1
	sll	$2,$2,4
	addiu	$3,$fp,40
	addu	$2,$3,$2
	lw	$2,972($2)
	sltu	$2,$2,16
	beq	$2,$0,$L90
	nop

$LBB40 = .
	.loc 2 438 0 is_stmt 1
	addiu	$3,$fp,1008
	lw	$2,80($fp)
	sll	$2,$2,4
	addiu	$2,$2,8
	addu	$3,$3,$2
	lw	$4,552($fp)
	addiu	$2,$fp,560
	move	$6,$4
	move	$5,$3
	move	$4,$2
	jal	_Z19toRoutingTableEntryP8RipEntryi
	nop

	.loc 2 439 0
	lw	$2,576($fp)
	beq	$2,$0,$L91
	nop

	.loc 2 440 0
	lw	$2,104($fp)
	sw	$2,572($fp)
$L91:
	.loc 2 443 0
	lw	$3,572($fp)
	lw	$2,576($fp)
	sw	$3,16($sp)
	sw	$2,20($sp)
	lw	$5,560($fp)
	lw	$6,564($fp)
	lw	$7,568($fp)
	li	$4,1			# 0x1
	jal	_Z6updateb17RoutingTableEntry
	nop

	beq	$2,$0,$L93
	nop

	.loc 2 444 0
	lw	$3,572($fp)
	lw	$4,560($fp)
	lw	$2,564($fp)
	andi	$2,$2,0x00ff
	sw	$2,16($sp)
	move	$7,$4
	move	$6,$3
	li	$5,1			# 0x1
	lw	$4,80($fp)
	jal	HAL_UpdateRoutingTable
	nop

	.loc 2 445 0
	lw	$16,600($fp)
	addiu	$2,$16,1
	sw	$2,600($fp)
	.loc 2 446 0
	lw	$17,560($fp)
	lw	$2,564($fp)
	move	$4,$2
	jal	_Z11len_to_maski
	nop

	and	$17,$17,$2
	.loc 2 447 0
	lw	$2,564($fp)
	move	$4,$2
	jal	_Z11len_to_maski
	nop

	move	$5,$2
	.loc 2 448 0
	lw	$3,572($fp)
	.loc 2 445 0
	sll	$2,$16,4
	addiu	$4,$fp,40
	addu	$2,$4,$2
	sw	$17,568($2)
	sll	$2,$16,4
	addiu	$4,$fp,40
	addu	$2,$4,$2
	sw	$5,572($2)
	addiu	$2,$16,1
	sll	$2,$2,4
	addiu	$4,$fp,40
	addu	$2,$4,$2
	sw	$3,560($2)
	addiu	$2,$16,1
	sll	$2,$2,4
	addiu	$3,$fp,40
	addu	$2,$3,$2
	li	$3,16			# 0x10
	sw	$3,564($2)
	b	$L93
	nop

$L90:
$LBE40 = .
$LBB41 = .
	.loc 2 454 0
	addiu	$3,$fp,1008
	lw	$2,80($fp)
	sll	$2,$2,4
	addiu	$2,$2,8
	addu	$3,$3,$2
	lw	$4,552($fp)
	addiu	$2,$fp,580
	move	$6,$4
	move	$5,$3
	move	$4,$2
	jal	_Z19toRoutingTableEntryP8RipEntryi
	nop

	.loc 2 455 0
	lw	$3,592($fp)
	lw	$2,596($fp)
	sw	$3,16($sp)
	sw	$2,20($sp)
	lw	$5,580($fp)
	lw	$6,584($fp)
	lw	$7,588($fp)
	move	$4,$0
	jal	_Z6updateb17RoutingTableEntry
	nop

	beq	$2,$0,$L93
	nop

	.loc 2 456 0
	lw	$3,592($fp)
	lw	$4,580($fp)
	lw	$2,584($fp)
	andi	$2,$2,0x00ff
	sw	$2,16($sp)
	move	$7,$4
	move	$6,$3
	move	$5,$0
	lw	$4,80($fp)
	jal	HAL_UpdateRoutingTable
	nop

$L93:
$LBE41 = .
$LBE39 = .
$LBE38 = .
	.loc 2 437 0 discriminator 3
	lw	$2,80($fp)
	addiu	$2,$2,1
	sw	$2,80($fp)
	b	$L95
	nop

$L89:
$LBE37 = .
	.loc 2 459 0
	lw	$2,600($fp)
	beq	$2,$0,$L69
	nop

	.loc 2 460 0
	lw	$2,600($fp)
	lw	$3,552($fp)
	move	$6,$3
	move	$5,$2
	lui	$2,%hi($LC11)
	addiu	$4,$2,%lo($LC11)
	jal	_Z3ERRPKcz
	nop

	.loc 2 461 0
	lui	$2,%hi(output+28)
	addiu	$3,$2,%lo(output+28)
	lui	$2,%hi(out_len)
	sw	$0,%lo(out_len)($2)
	addiu	$2,$fp,600
	move	$6,$2
	lui	$2,%hi(out_len)
	addiu	$5,$2,%lo(out_len)
	move	$4,$3
	jal	_Z11RIPAssemblePhRjRK9RipPacket
	nop

	.loc 2 462 0
	lui	$2,%hi(output+20)
	addiu	$3,$2,%lo(output+20)
	li	$7,520			# 0x208
	li	$6,520			# 0x208
	lui	$2,%hi(out_len)
	addiu	$5,$2,%lo(out_len)
	move	$4,$3
	jal	_Z17UDPHeaderAssemblePhRjtt
	nop

	.loc 2 463 0
	lw	$3,552($fp)
	lui	$2,%hi(addrs)
	sll	$3,$3,2
	addiu	$2,$2,%lo(addrs)
	addu	$2,$3,$2
	lw	$3,0($2)
	lui	$2,%hi(multicasting_ip)
	lw	$2,%lo(multicasting_ip)($2)
	move	$7,$2
	move	$6,$3
	lui	$2,%hi(out_len)
	addiu	$5,$2,%lo(out_len)
	lui	$2,%hi(output)
	addiu	$4,$2,%lo(output)
	jal	_Z16IPHeaderAssemblePhRjjj
	nop

	.loc 2 465 0
	lw	$3,552($fp)
	lui	$2,%hi(out_len)
	lw	$2,%lo(out_len)($2)
	addiu	$4,$fp,536
	move	$7,$4
	move	$6,$2
	lui	$2,%hi(output)
	addiu	$5,$2,%lo(output)
	move	$4,$3
	jal	HAL_SendIPPacket
	nop

	b	$L69
	nop

$L86:
$LBE36 = .
$LBE35 = .
$LBE34 = .
	.loc 2 470 0
	lui	$2,%hi($LC12)
	addiu	$4,$2,%lo($LC12)
	jal	_Z3ERRPKcz
	nop

	b	$L69
	nop

$L100:
$LBE33 = .
$LBE32 = .
$LBE31 = .
	.loc 2 369 0
	nop
$L98:
$LBE42 = .
	.loc 2 502 0 discriminator 4
	b	$L69
	nop

$L62:
	.loc 2 504 0
	move	$sp,$fp
	.cfi_def_cfa_register 29
	lw	$31,1428($sp)
	lw	$fp,1424($sp)
	lw	$17,1420($sp)
	lw	$16,1416($sp)
	addiu	$sp,$sp,1432
	.cfi_restore 16
	.cfi_restore 17
	.cfi_restore 30
	.cfi_restore 31
	.cfi_def_cfa_offset 0
	jr	$31
	nop

	.set	macro
	.set	reorder
	.end	main
	.cfi_endproc
$LFE34:
	.size	main, .-main
$Letext0:
	.file 3 "/usr/lib/gcc-cross/mipsel-linux-gnu/7/include/stdint-gcc.h"
	.file 4 "router.h"
	.file 5 "/usr/mipsel-linux-gnu/include/c++/7/bits/std_abs.h"
	.file 6 "/usr/mipsel-linux-gnu/include/c++/7/cstdlib"
	.file 7 "/usr/mipsel-linux-gnu/include/c++/7/mipsel-linux-gnu/bits/c++config.h"
	.file 8 "/usr/lib/gcc-cross/mipsel-linux-gnu/7/include/stddef.h"
	.file 9 "/usr/mipsel-linux-gnu/include/stdlib.h"
	.file 10 "/usr/mipsel-linux-gnu/include/c++/7/stdlib.h"
	.file 11 "../../HAL/include/router_hal.h"
	.file 12 "<built-in>"