	.section .mdebug.abi32
	.previous
	.nan	legacy
	.module	fp=xx
	.module	nooddspreg
	.text
$Ltext0:
	.rdata
	.align	2
	.type	_ZL1p, @object
	.size	_ZL1p, 4
_ZL1p:
	.word	28
	.text
	.align	2
	.globl	_Z11disassemblePKhjR9RipPacket
$LFB15 = .
	.file 1 "protocol.cpp"
	.loc 1 49 0
	.cfi_startproc
	.set	nomips16
	.set	nomicromips
	.ent	_Z11disassemblePKhjR9RipPacket
	.type	_Z11disassemblePKhjR9RipPacket, @function
_Z11disassemblePKhjR9RipPacket:
	.frame	$fp,80,$31		# vars= 72, regs= 1/0, args= 0, gp= 0
	.mask	0x40000000,-4
	.fmask	0x00000000,0
	.set	noreorder
	.set	nomacro
	addiu	$sp,$sp,-80
	.cfi_def_cfa_offset 80
	sw	$fp,76($sp)
	.cfi_offset 30, -4
	move	$fp,$sp
	.cfi_def_cfa_register 30
	sw	$4,80($fp)
	sw	$5,84($fp)
	sw	$6,88($fp)
	.loc 1 50 0
	lw	$2,80($fp)
	lbu	$2,0($2)
	move	$3,$2
	lw	$2,84($fp)
	addiu	$2,$2,18
	sltu	$2,$2,$3
	beq	$2,$0,$L2
	nop

	.loc 1 50 0 is_stmt 0 discriminator 1
	move	$2,$0
	b	$L3
	nop

$L2:
	.loc 1 51 0 is_stmt 1
	lw	$2,80($fp)
	addiu	$2,$2,28
	lbu	$2,0($2)
	sw	$2,28($fp)
	.loc 1 52 0
	lw	$2,80($fp)
	addiu	$2,$2,29
	lbu	$2,0($2)
	sw	$2,32($fp)
	.loc 1 53 0
	lw	$2,80($fp)
	addiu	$2,$2,30
	lbu	$2,0($2)
	sll	$2,$2,8
	lw	$3,80($fp)
	addiu	$3,$3,31
	lbu	$3,0($3)
	xor	$2,$2,$3
	sw	$2,36($fp)
	.loc 1 54 0
	lw	$3,28($fp)
	li	$2,1			# 0x1
	beq	$3,$2,$L4
	nop

	.loc 1 54 0 is_stmt 0 discriminator 1
	lw	$3,28($fp)
	li	$2,2			# 0x2
	bne	$3,$2,$L5
	nop

$L4:
	.loc 1 54 0 discriminator 4
	lw	$3,32($fp)
	li	$2,2			# 0x2
	bne	$3,$2,$L5
	nop

	.loc 1 54 0 discriminator 6
	lw	$2,36($fp)
	beq	$2,$0,$L6
	nop

$L5:
	.loc 1 54 0 discriminator 7
	move	$2,$0
	b	$L3
	nop

$L6:
	.loc 1 57 0 is_stmt 1
	sw	$0,0($fp)
$LBB2 = .
	.loc 1 59 0
	li	$2,32			# 0x20
	sw	$2,4($fp)
$L24:
	.loc 1 59 0 is_stmt 0 discriminator 1
	lw	$2,4($fp)
	lw	$3,84($fp)
	sltu	$2,$2,$3
	beq	$2,$0,$L7
	nop

$LBB3 = .
	.loc 1 60 0 is_stmt 1
	lw	$2,4($fp)
	addiu	$2,$2,20
	move	$3,$2
	lw	$2,84($fp)
	sltu	$2,$2,$3
	beq	$2,$0,$L8
	nop

	.loc 1 60 0 is_stmt 0 discriminator 1
	move	$2,$0
	b	$L3
	nop

$L8:
	.loc 1 61 0 is_stmt 1
	lw	$2,4($fp)
	lw	$3,80($fp)
	addu	$2,$3,$2
	lbu	$2,0($2)
	sll	$2,$2,8
	lw	$3,4($fp)
	addiu	$3,$3,1
	lw	$4,80($fp)
	addu	$3,$4,$3
	lbu	$3,0($3)
	or	$2,$2,$3
	sw	$2,40($fp)
	.loc 1 62 0
	lw	$2,4($fp)
	addiu	$2,$2,2
	lw	$3,80($fp)
	addu	$2,$3,$2
	lbu	$2,0($2)
	sll	$2,$2,8
	lw	$3,4($fp)
	addiu	$3,$3,3
	lw	$4,80($fp)
	addu	$3,$4,$3
	lbu	$3,0($3)
	or	$2,$2,$3
	sw	$2,44($fp)
	.loc 1 63 0
	lw	$2,44($fp)
	beq	$2,$0,$L10
	nop

	.loc 1 63 0 is_stmt 0 discriminator 1
	move	$2,$0
	b	$L3
	nop

$L10:
	.loc 1 64 0 is_stmt 1
	lw	$3,28($fp)
	li	$2,2			# 0x2
	bne	$3,$2,$L11
	nop

	.loc 1 64 0 is_stmt 0 discriminator 1
	lw	$3,40($fp)
	li	$2,2			# 0x2
	beq	$3,$2,$L11
	nop

	.loc 1 64 0 discriminator 2
	move	$2,$0
	b	$L3
	nop

$L11:
	.loc 1 65 0 is_stmt 1
	lw	$3,28($fp)
	li	$2,1			# 0x1
	bne	$3,$2,$L12
	nop

	.loc 1 65 0 is_stmt 0 discriminator 1
	lw	$2,40($fp)
	beq	$2,$0,$L12
	nop

	.loc 1 65 0 discriminator 2
	move	$2,$0
	b	$L3
	nop

$L12:
	.loc 1 66 0 is_stmt 1
	lw	$2,4($fp)
	addiu	$2,$2,4
	sw	$2,4($fp)
	.loc 1 67 0
	sw	$0,52($fp)
	sw	$0,56($fp)
	sw	$0,60($fp)
	sw	$0,64($fp)
$LBB4 = .
	.loc 1 68 0
	sw	$0,8($fp)
$L23:
	.loc 1 68 0 is_stmt 0 discriminator 1
	lw	$2,8($fp)
	slt	$2,$2,4
	beq	$2,$0,$L13
	nop

$LBB5 = .
	.loc 1 69 0 is_stmt 1
	sw	$0,12($fp)
$LBB6 = .
	.loc 1 70 0
	sw	$0,16($fp)
$L15:
	.loc 1 70 0 is_stmt 0 discriminator 3
	lw	$2,16($fp)
	slt	$2,$2,4
	beq	$2,$0,$L14
	nop

	.loc 1 71 0 is_stmt 1 discriminator 2
	lw	$2,12($fp)
	sll	$2,$2,8
	lw	$3,4($fp)
	lw	$4,80($fp)
	addu	$3,$4,$3
	lbu	$3,0($3)
	or	$2,$2,$3
	sw	$2,12($fp)
	.loc 1 72 0 discriminator 2
	lw	$2,8($fp)
	sll	$2,$2,2
	addu	$2,$fp,$2
	lw	$3,52($2)
	lw	$2,4($fp)
	lw	$4,80($fp)
	addu	$2,$4,$2
	lbu	$2,0($2)
	move	$4,$2
	lw	$2,16($fp)
	sll	$2,$2,3
	sll	$2,$4,$2
	or	$3,$3,$2
	lw	$2,8($fp)
	sll	$2,$2,2
	addu	$2,$fp,$2
	sw	$3,52($2)
	.loc 1 70 0 discriminator 2
	lw	$2,16($fp)
	addiu	$2,$2,1
	sw	$2,16($fp)
	lw	$2,4($fp)
	addiu	$2,$2,1
	sw	$2,4($fp)
	b	$L15
	nop

$L14:
$LBE6 = .
$LBB7 = .
	.loc 1 74 0
	lw	$3,8($fp)
	li	$2,1			# 0x1
	bne	$3,$2,$L16
	nop

$LBB8 = .
	.loc 1 75 0
	sb	$0,20($fp)
$LBB9 = .
	.loc 1 76 0
	sw	$0,24($fp)
$L20:
	.loc 1 76 0 is_stmt 0 discriminator 1
	lw	$2,24($fp)
	slt	$2,$2,32
	beq	$2,$0,$L16
	nop

$LBB10 = .
	.loc 1 77 0 is_stmt 1
	lw	$2,12($fp)
	andi	$2,$2,0x1
	sw	$2,48($fp)
	.loc 1 78 0
	lw	$2,12($fp)
	srl	$2,$2,1
	sw	$2,12($fp)
	.loc 1 79 0
	lbu	$2,20($fp)
	beq	$2,$0,$L18
	nop

	.loc 1 80 0
	lw	$2,48($fp)
	bne	$2,$0,$L19
	nop

	.loc 1 80 0 is_stmt 0 discriminator 1
	move	$2,$0
	b	$L3
	nop

$L18:
	.loc 1 83 0 is_stmt 1
	lw	$2,48($fp)
	beq	$2,$0,$L19
	nop

	.loc 1 83 0 is_stmt 0 discriminator 1
	li	$2,1			# 0x1
	sb	$2,20($fp)
$L19:
$LBE10 = .
	.loc 1 76 0 is_stmt 1 discriminator 2
	lw	$2,24($fp)
	addiu	$2,$2,1
	sw	$2,24($fp)
	b	$L20
	nop

$L16:
$LBE9 = .
$LBE8 = .
$LBE7 = .
	.loc 1 87 0
	lw	$3,8($fp)
	li	$2,3			# 0x3
	bne	$3,$2,$L21
	nop

	.loc 1 88 0
	lw	$2,12($fp)
	beq	$2,$0,$L22
	nop

	.loc 1 88 0 is_stmt 0 discriminator 2
	lw	$2,12($fp)
	sltu	$2,$2,17
	bne	$2,$0,$L21
	nop

$L22:
	.loc 1 88 0 discriminator 3
	move	$2,$0
	b	$L3
	nop

$L21:
$LBE5 = .
	.loc 1 68 0 is_stmt 1 discriminator 2
	lw	$2,8($fp)
	addiu	$2,$2,1
	sw	$2,8($fp)
	b	$L23
	nop

$L13:
$LBE4 = .
	.loc 1 91 0
	lw	$3,52($fp)
	lw	$4,88($fp)
	lw	$2,0($fp)
	sll	$2,$2,4
	addu	$2,$4,$2
	sw	$3,8($2)
	.loc 1 92 0
	lw	$3,56($fp)
	lw	$4,88($fp)
	lw	$2,0($fp)
	sll	$2,$2,4
	addu	$2,$4,$2
	sw	$3,12($2)
	.loc 1 93 0
	lw	$3,60($fp)
	lw	$4,88($fp)
	lw	$2,0($fp)
	addiu	$2,$2,1
	sll	$2,$2,4
	addu	$2,$4,$2
	sw	$3,0($2)
	.loc 1 94 0
	lw	$2,64($fp)
	srl	$3,$2,24
	lw	$4,88($fp)
	lw	$2,0($fp)
	addiu	$2,$2,1
	sll	$2,$2,4
	addu	$2,$4,$2
	sw	$3,4($2)
$LBE3 = .
	.loc 1 59 0
	lw	$2,0($fp)
	addiu	$2,$2,1
	sw	$2,0($fp)
	b	$L24
	nop

$L7:
$LBE2 = .
	.loc 1 96 0
	lw	$3,0($fp)
	lw	$2,88($fp)
	sw	$3,0($2)
	.loc 1 97 0
	lw	$2,28($fp)
	andi	$3,$2,0x00ff
	lw	$2,88($fp)
	sb	$3,4($2)
	.loc 1 99 0
	li	$2,1			# 0x1
$L3:
	.loc 1 100 0
	move	$sp,$fp
	.cfi_def_cfa_register 29
	lw	$fp,76($sp)
	addiu	$sp,$sp,80
	.cfi_restore 30
	.cfi_def_cfa_offset 0
	jr	$31
	nop

	.set	macro
	.set	reorder
	.end	_Z11disassemblePKhjR9RipPacket
	.cfi_endproc
$LFE15:
	.size	_Z11disassemblePKhjR9RipPacket, .-_Z11disassemblePKhjR9RipPacket
	.align	2
$LFB17 = .
	.loc 1 113 0
	.cfi_startproc
	.set	nomips16
	.set	nomicromips
	.ent	_ZZ8assembleRK9RipPacketPhENKUlhE_clEh
	.type	_ZZ8assembleRK9RipPacketPhENKUlhE_clEh, @function
_ZZ8assembleRK9RipPacketPhENKUlhE_clEh:
	.frame	$fp,8,$31		# vars= 0, regs= 1/0, args= 0, gp= 0
	.mask	0x40000000,-4
	.fmask	0x00000000,0
	.set	noreorder
	.set	nomacro
	addiu	$sp,$sp,-8
	.cfi_def_cfa_offset 8
	sw	$fp,4($sp)
	.cfi_offset 30, -4
	move	$fp,$sp
	.cfi_def_cfa_register 30
	sw	$4,8($fp)
	move	$2,$5
	sb	$2,12($fp)
	.loc 1 113 0
	lw	$2,8($fp)
	lw	$4,0($2)
	lw	$2,8($fp)
	lw	$3,4($2)
	lw	$2,0($3)
	addiu	$5,$2,1
	sw	$5,0($3)
	addu	$2,$4,$2
	lbu	$3,12($fp)
	sb	$3,0($2)
	nop
	move	$sp,$fp
	.cfi_def_cfa_register 29
	lw	$fp,4($sp)
	addiu	$sp,$sp,8
	.cfi_restore 30
	.cfi_def_cfa_offset 0
	jr	$31
	nop

	.set	macro
	.set	reorder
	.end	_ZZ8assembleRK9RipPacketPhENKUlhE_clEh
	.cfi_endproc
$LFE17:
	.size	_ZZ8assembleRK9RipPacketPhENKUlhE_clEh, .-_ZZ8assembleRK9RipPacketPhENKUlhE_clEh
	.align	2
	.globl	_Z8assembleRK9RipPacketPh
$LFB16 = .
	.loc 1 111 0
	.cfi_startproc
	.set	nomips16
	.set	nomicromips
	.ent	_Z8assembleRK9RipPacketPh
	.type	_Z8assembleRK9RipPacketPh, @function
_Z8assembleRK9RipPacketPh:
	.frame	$fp,64,$31		# vars= 40, regs= 2/0, args= 16, gp= 0
	.mask	0xc0000000,-4
	.fmask	0x00000000,0
	.set	noreorder
	.set	nomacro
	addiu	$sp,$sp,-64
	.cfi_def_cfa_offset 64
	sw	$31,60($sp)
	sw	$fp,56($sp)
	.cfi_offset 31, -4
	.cfi_offset 30, -8
	move	$fp,$sp
	.cfi_def_cfa_register 30
	sw	$4,64($fp)
	sw	$5,68($fp)
	.loc 1 112 0
	sw	$0,28($fp)
	.loc 1 113 0
	lw	$2,68($fp)
	sw	$2,32($fp)
	addiu	$2,$fp,28
	sw	$2,36($fp)
	.loc 1 114 0
	lw	$2,64($fp)
	lbu	$3,4($2)
	addiu	$2,$fp,32
	move	$5,$3
	move	$4,$2
	jal	_ZZ8assembleRK9RipPacketPhENKUlhE_clEh
	nop

	.loc 1 115 0
	addiu	$2,$fp,32
	li	$5,2			# 0x2
	move	$4,$2
	jal	_ZZ8assembleRK9RipPacketPhENKUlhE_clEh
	nop

	.loc 1 116 0
	addiu	$2,$fp,32
	move	$5,$0
	move	$4,$2
	jal	_ZZ8assembleRK9RipPacketPhENKUlhE_clEh
	nop

	addiu	$2,$fp,32
	move	$5,$0
	move	$4,$2
	jal	_ZZ8assembleRK9RipPacketPhENKUlhE_clEh
	nop

$LBB11 = .
	.loc 1 117 0
	sw	$0,16($fp)
$L34:
	.loc 1 117 0 is_stmt 0 discriminator 1
	lw	$2,64($fp)
	lw	$3,0($2)
	lw	$2,16($fp)
	sltu	$2,$2,$3
	beq	$2,$0,$L27
	nop

$LBB12 = .
	.loc 1 118 0 is_stmt 1
	addiu	$2,$fp,32
	move	$5,$0
	move	$4,$2
	jal	_ZZ8assembleRK9RipPacketPhENKUlhE_clEh
	nop

	lw	$2,64($fp)
	lbu	$3,4($2)
	li	$2,2			# 0x2
	bne	$3,$2,$L28
	nop

	.loc 1 118 0 is_stmt 0 discriminator 1
	li	$2,2			# 0x2
	b	$L29
	nop

$L28:
	.loc 1 118 0 discriminator 2
	move	$2,$0
$L29:
	.loc 1 118 0 discriminator 4
	addiu	$3,$fp,32
	move	$5,$2
	move	$4,$3
	jal	_ZZ8assembleRK9RipPacketPhENKUlhE_clEh
	nop

	.loc 1 119 0 is_stmt 1 discriminator 4
	addiu	$2,$fp,32
	move	$5,$0
	move	$4,$2
	jal	_ZZ8assembleRK9RipPacketPhENKUlhE_clEh
	nop

	addiu	$2,$fp,32
	move	$5,$0
	move	$4,$2
	jal	_ZZ8assembleRK9RipPacketPhENKUlhE_clEh
	nop

	.loc 1 120 0 discriminator 4
	lw	$3,64($fp)
	lw	$2,16($fp)
	sll	$2,$2,4
	addu	$2,$3,$2
	lw	$2,8($2)
	sw	$2,40($fp)
	lw	$3,64($fp)
	lw	$2,16($fp)
	sll	$2,$2,4
	addu	$2,$3,$2
	lw	$2,12($2)
	sw	$2,44($fp)
	lw	$3,64($fp)
	lw	$2,16($fp)
	addiu	$2,$2,1
	sll	$2,$2,4
	addu	$2,$3,$2
	lw	$2,0($2)
	sw	$2,48($fp)
	lw	$3,64($fp)
	lw	$2,16($fp)
	addiu	$2,$2,1
	sll	$2,$2,4
	addu	$2,$3,$2
	lw	$2,4($2)
	sw	$2,52($fp)
$LBB13 = .
	.loc 1 121 0 discriminator 4
	sw	$0,20($fp)
$L33:
	.loc 1 121 0 is_stmt 0 discriminator 1
	lw	$2,20($fp)
	slt	$2,$2,4
	beq	$2,$0,$L30
	nop

$LBB14 = .
$LBB15 = .
	.loc 1 122 0 is_stmt 1
	sw	$0,24($fp)
$L32:
	.loc 1 122 0 is_stmt 0 discriminator 3
	lw	$2,24($fp)
	slt	$2,$2,4
	beq	$2,$0,$L31
	nop

	.loc 1 123 0 is_stmt 1 discriminator 2
	lw	$2,20($fp)
	sll	$2,$2,2
	addiu	$3,$fp,16
	addu	$2,$3,$2
	lw	$2,24($2)
	andi	$3,$2,0x00ff
	addiu	$2,$fp,32
	move	$5,$3
	move	$4,$2
	jal	_ZZ8assembleRK9RipPacketPhENKUlhE_clEh
	nop

	.loc 1 124 0 discriminator 2
	lw	$2,20($fp)
	sll	$2,$2,2
	addiu	$3,$fp,16
	addu	$2,$3,$2
	lw	$2,24($2)
	srl	$3,$2,8
	lw	$2,20($fp)
	sll	$2,$2,2
	addiu	$4,$fp,16
	addu	$2,$4,$2
	sw	$3,24($2)
	.loc 1 122 0 discriminator 2
	lw	$2,24($fp)
	addiu	$2,$2,1
	sw	$2,24($fp)
	b	$L32
	nop

$L31:
$LBE15 = .
$LBE14 = .
	.loc 1 121 0 discriminator 2
	lw	$2,20($fp)
	addiu	$2,$2,1
	sw	$2,20($fp)
	b	$L33
	nop

$L30:
$LBE13 = .
$LBE12 = .
	.loc 1 117 0 discriminator 2
	lw	$2,16($fp)
	addiu	$2,$2,1
	sw	$2,16($fp)
	b	$L34
	nop

$L27:
$LBE11 = .
	.loc 1 128 0
	lw	$2,28($fp)
	.loc 1 129 0
	move	$sp,$fp
	.cfi_def_cfa_register 29
	lw	$31,60($sp)
	lw	$fp,56($sp)
	addiu	$sp,$sp,64
	.cfi_restore 30
	.cfi_restore 31
	.cfi_def_cfa_offset 0
	jr	$31
	nop

	.set	macro
	.set	reorder
	.end	_Z8assembleRK9RipPacketPh
	.cfi_endproc
$LFE16:
	.size	_Z8assembleRK9RipPacketPh, .-_Z8assembleRK9RipPacketPh
$Letext0:
	.file 2 "/usr/lib/gcc-cross/mipsel-linux-gnu/7/include/stdint-gcc.h"
	.file 3 "rip.h"
	.file 4 "/usr/mipsel-linux-gnu/include/c++/7/bits/std_abs.h"
	.file 5 "/usr/mipsel-linux-gnu/include/c++/7/cstdlib"
	.file 6 "/usr/mipsel-linux-gnu/include/c++/7/mipsel-linux-gnu/bits/c++config.h"
	.file 7 "/usr/lib/gcc-cross/mipsel-linux-gnu/7/include/stddef.h"
	.file 8 "/usr/mipsel-linux-gnu/include/stdlib.h"
	.file 9 "/usr/mipsel-linux-gnu/include/bits/types.h"
	.file 10 "/usr/mipsel-linux-gnu/include/c++/7/stdlib.h"
	.file 11 "/usr/mipsel-linux-gnu/include/bits/libio.h"
	.file 12 "/usr/mipsel-linux-gnu/include/stdio.h"
	.file 13 "/usr/mipsel-linux-gnu/include/bits/sys_errlist.h"
	.file 14 "<built-in>"